
ElectronicLoad.elf:     file format elf32-avr

Sections:
Idx Name          Size      VMA       LMA       File off  Algn
  0 .data         00000488  00800100  00003ff2  00004086  2**0
                  CONTENTS, ALLOC, LOAD, DATA
  1 .text         00003ff2  00000000  00000000  00000094  2**1
                  CONTENTS, ALLOC, LOAD, READONLY, CODE
  2 .bss          00000175  00800588  00800588  0000450e  2**0
                  ALLOC
  3 .comment      00000030  00000000  00000000  0000450e  2**0
                  CONTENTS, READONLY
  4 .note.gnu.avr.deviceinfo 00000040  00000000  00000000  00004540  2**2
                  CONTENTS, READONLY
  5 .debug_aranges 000001b0  00000000  00000000  00004580  2**0
                  CONTENTS, READONLY, DEBUGGING
  6 .debug_pubnames 0000037b  00000000  00000000  00004730  2**0
                  CONTENTS, READONLY, DEBUGGING
  7 .debug_info   000026ed  00000000  00000000  00004aab  2**0
                  CONTENTS, READONLY, DEBUGGING
  8 .debug_abbrev 00000c49  00000000  00000000  00007198  2**0
                  CONTENTS, READONLY, DEBUGGING
  9 .debug_line   0000119e  00000000  00000000  00007de1  2**0
                  CONTENTS, READONLY, DEBUGGING
 10 .debug_frame  000002e0  00000000  00000000  00008f80  2**2
                  CONTENTS, READONLY, DEBUGGING
 11 .debug_str    00001008  00000000  00000000  00009260  2**0
                  CONTENTS, READONLY, DEBUGGING
 12 .debug_loc    000010af  00000000  00000000  0000a268  2**0
                  CONTENTS, READONLY, DEBUGGING
 13 .debug_ranges 00000190  00000000  00000000  0000b317  2**0
                  CONTENTS, READONLY, DEBUGGING

Disassembly of section .text:

00000000 <__vectors>:
       0:	0c 94 13 04 	jmp	0x826	; 0x826 <__dtors_end>
       4:	0c 94 bb 12 	jmp	0x2576	; 0x2576 <__vector_1>
       8:	0c 94 b1 12 	jmp	0x2562	; 0x2562 <__vector_2>
       c:	0c 94 f0 12 	jmp	0x25e0	; 0x25e0 <__vector_3>
      10:	0c 94 3b 04 	jmp	0x876	; 0x876 <__bad_interrupt>
      14:	0c 94 3b 04 	jmp	0x876	; 0x876 <__bad_interrupt>
      18:	0c 94 3b 04 	jmp	0x876	; 0x876 <__bad_interrupt>
      1c:	0c 94 3b 04 	jmp	0x876	; 0x876 <__bad_interrupt>
      20:	0c 94 3b 04 	jmp	0x876	; 0x876 <__bad_interrupt>
      24:	0c 94 3b 04 	jmp	0x876	; 0x876 <__bad_interrupt>
      28:	0c 94 3b 04 	jmp	0x876	; 0x876 <__bad_interrupt>
      2c:	0c 94 3b 04 	jmp	0x876	; 0x876 <__bad_interrupt>
      30:	0c 94 3b 04 	jmp	0x876	; 0x876 <__bad_interrupt>
      34:	0c 94 3b 04 	jmp	0x876	; 0x876 <__bad_interrupt>
      38:	0c 94 3b 04 	jmp	0x876	; 0x876 <__bad_interrupt>
      3c:	0c 94 3b 04 	jmp	0x876	; 0x876 <__bad_interrupt>
      40:	0c 94 ae 1a 	jmp	0x355c	; 0x355c <__vector_16>
      44:	0c 94 3b 04 	jmp	0x876	; 0x876 <__bad_interrupt>
      48:	0c 94 a5 0d 	jmp	0x1b4a	; 0x1b4a <__vector_18>
      4c:	0c 94 e6 0d 	jmp	0x1bcc	; 0x1bcc <__vector_19>
      50:	0c 94 3b 04 	jmp	0x876	; 0x876 <__bad_interrupt>
      54:	0c 94 3b 04 	jmp	0x876	; 0x876 <__bad_interrupt>
      58:	0c 94 3b 04 	jmp	0x876	; 0x876 <__bad_interrupt>
      5c:	0c 94 3b 04 	jmp	0x876	; 0x876 <__bad_interrupt>
      60:	0c 94 3b 04 	jmp	0x876	; 0x876 <__bad_interrupt>
      64:	0c 94 3b 04 	jmp	0x876	; 0x876 <__bad_interrupt>

00000068 <__trampolines_end>:
      68:	00 00       	nop
      6a:	00 00       	nop
      6c:	00 3e       	cpi	r16, 0xE0	; 224
      6e:	5b 4f       	sbci	r21, 0xFB	; 251
      70:	5b 3e       	cpi	r21, 0xEB	; 235
      72:	3e 6b       	ori	r19, 0xBE	; 190
      74:	4f 6b       	ori	r20, 0xBF	; 191
      76:	3e 1c       	adc	r3, r14
      78:	3e 7c       	andi	r19, 0xCE	; 206
      7a:	3e 1c       	adc	r3, r14
      7c:	18 3c       	cpi	r17, 0xC8	; 200
      7e:	7e 3c       	cpi	r23, 0xCE	; 206
      80:	18 1c       	adc	r1, r8
      82:	57 7d       	andi	r21, 0xD7	; 215
      84:	57 1c       	adc	r5, r7
      86:	1c 5e       	subi	r17, 0xEC	; 236
      88:	7f 5e       	subi	r23, 0xEF	; 239
      8a:	1c 00       	.word	0x001c	; ????
      8c:	18 3c       	cpi	r17, 0xC8	; 200
      8e:	18 00       	.word	0x0018	; ????
      90:	ff e7       	ldi	r31, 0x7F	; 127
      92:	c3 e7       	ldi	r28, 0x73	; 115
      94:	ff 00       	.word	0x00ff	; ????
      96:	18 24       	eor	r1, r8
      98:	18 00       	.word	0x0018	; ????
      9a:	ff e7       	ldi	r31, 0x7F	; 127
      9c:	db e7       	ldi	r29, 0x7B	; 123
      9e:	ff 30       	cpi	r31, 0x0F	; 15
      a0:	48 3a       	cpi	r20, 0xA8	; 168
      a2:	06 0e       	add	r0, r22
      a4:	26 29       	or	r18, r6
      a6:	79 29       	or	r23, r9
      a8:	26 40       	sbci	r18, 0x06	; 6
      aa:	7f 05       	cpc	r23, r15
      ac:	05 07       	cpc	r16, r21
      ae:	40 7f       	andi	r20, 0xF0	; 240
      b0:	05 25       	eor	r16, r5
      b2:	3f 5a       	subi	r19, 0xAF	; 175
      b4:	3c e7       	ldi	r19, 0x7C	; 124
      b6:	3c 5a       	subi	r19, 0xAC	; 172
      b8:	7f 3e       	cpi	r23, 0xEF	; 239
      ba:	1c 1c       	adc	r1, r12
      bc:	08 08       	sbc	r0, r8
      be:	1c 1c       	adc	r1, r12
      c0:	3e 7f       	andi	r19, 0xFE	; 254
      c2:	14 22       	and	r1, r20
      c4:	7f 22       	and	r7, r31
      c6:	14 5f       	subi	r17, 0xF4	; 244
      c8:	5f 00       	.word	0x005f	; ????
      ca:	5f 5f       	subi	r21, 0xFF	; 255
      cc:	06 09       	sbc	r16, r6
      ce:	7f 01       	movw	r14, r30
      d0:	7f 00       	.word	0x007f	; ????
      d2:	66 89       	ldd	r22, Z+22	; 0x16
      d4:	95 6a       	ori	r25, 0xA5	; 165
      d6:	60 60       	ori	r22, 0x00	; 0
      d8:	60 60       	ori	r22, 0x00	; 0
      da:	60 94       	com	r6
      dc:	a2 ff       	sbrs	r26, 2
      de:	a2 94       	swap	r10
      e0:	08 04       	cpc	r0, r8
      e2:	7e 04       	cpc	r7, r14
      e4:	08 10       	cpse	r0, r8
      e6:	20 7e       	andi	r18, 0xE0	; 224
      e8:	20 10       	cpse	r2, r0
      ea:	08 08       	sbc	r0, r8
      ec:	2a 1c       	adc	r2, r10
      ee:	08 08       	sbc	r0, r8
      f0:	1c 2a       	or	r1, r28
      f2:	08 08       	sbc	r0, r8
      f4:	1e 10       	cpse	r1, r14
      f6:	10 10       	cpse	r1, r0
      f8:	10 0c       	add	r1, r0
      fa:	1e 0c       	add	r1, r14
      fc:	1e 0c       	add	r1, r14
      fe:	30 38       	cpi	r19, 0x80	; 128
     100:	3e 38       	cpi	r19, 0x8E	; 142
     102:	30 06       	cpc	r3, r16
     104:	0e 3e       	cpi	r16, 0xEE	; 238
     106:	0e 06       	cpc	r0, r30
     108:	00 00       	nop
     10a:	00 00       	nop
     10c:	00 00       	nop
     10e:	00 5f       	subi	r16, 0xF0	; 240
     110:	00 00       	nop
     112:	00 07       	cpc	r16, r16
     114:	00 07       	cpc	r16, r16
     116:	00 14       	cp	r0, r0
     118:	7f 14       	cp	r7, r15
     11a:	7f 14       	cp	r7, r15
     11c:	24 2a       	or	r2, r20
     11e:	7f 2a       	or	r7, r31
     120:	12 23       	and	r17, r18
     122:	13 08       	sbc	r1, r3
     124:	64 62       	ori	r22, 0x24	; 36
     126:	36 49       	sbci	r19, 0x96	; 150
     128:	56 20       	and	r5, r6
     12a:	50 00       	.word	0x0050	; ????
     12c:	08 07       	cpc	r16, r24
     12e:	03 00       	.word	0x0003	; ????
     130:	00 1c       	adc	r0, r0
     132:	22 41       	sbci	r18, 0x12	; 18
     134:	00 00       	nop
     136:	41 22       	and	r4, r17
     138:	1c 00       	.word	0x001c	; ????
     13a:	2a 1c       	adc	r2, r10
     13c:	7f 1c       	adc	r7, r15
     13e:	2a 08       	sbc	r2, r10
     140:	08 3e       	cpi	r16, 0xE8	; 232
     142:	08 08       	sbc	r0, r8
     144:	00 80       	ld	r0, Z
     146:	70 30       	cpi	r23, 0x00	; 0
     148:	00 08       	sbc	r0, r0
     14a:	08 08       	sbc	r0, r8
     14c:	08 08       	sbc	r0, r8
     14e:	00 00       	nop
     150:	60 60       	ori	r22, 0x00	; 0
     152:	00 20       	and	r0, r0
     154:	10 08       	sbc	r1, r0
     156:	04 02       	muls	r16, r20
     158:	3e 51       	subi	r19, 0x1E	; 30
     15a:	49 45       	sbci	r20, 0x59	; 89
     15c:	3e 00       	.word	0x003e	; ????
     15e:	42 7f       	andi	r20, 0xF2	; 242
     160:	40 00       	.word	0x0040	; ????
     162:	72 49       	sbci	r23, 0x92	; 146
     164:	49 49       	sbci	r20, 0x99	; 153
     166:	46 21       	and	r20, r6
     168:	41 49       	sbci	r20, 0x91	; 145
     16a:	4d 33       	cpi	r20, 0x3D	; 61
     16c:	18 14       	cp	r1, r8
     16e:	12 7f       	andi	r17, 0xF2	; 242
     170:	10 27       	eor	r17, r16
     172:	45 45       	sbci	r20, 0x55	; 85
     174:	45 39       	cpi	r20, 0x95	; 149
     176:	3c 4a       	sbci	r19, 0xAC	; 172
     178:	49 49       	sbci	r20, 0x99	; 153
     17a:	31 41       	sbci	r19, 0x11	; 17
     17c:	21 11       	cpse	r18, r1
     17e:	09 07       	cpc	r16, r25
     180:	36 49       	sbci	r19, 0x96	; 150
     182:	49 49       	sbci	r20, 0x99	; 153
     184:	36 46       	sbci	r19, 0x66	; 102
     186:	49 49       	sbci	r20, 0x99	; 153
     188:	29 1e       	adc	r2, r25
     18a:	00 00       	nop
     18c:	14 00       	.word	0x0014	; ????
     18e:	00 00       	nop
     190:	40 34       	cpi	r20, 0x40	; 64
     192:	00 00       	nop
     194:	00 08       	sbc	r0, r0
     196:	14 22       	and	r1, r20
     198:	41 14       	cp	r4, r1
     19a:	14 14       	cp	r1, r4
     19c:	14 14       	cp	r1, r4
     19e:	00 41       	sbci	r16, 0x10	; 16
     1a0:	22 14       	cp	r2, r2
     1a2:	08 02       	muls	r16, r24
     1a4:	01 59       	subi	r16, 0x91	; 145
     1a6:	09 06       	cpc	r0, r25
     1a8:	3e 41       	sbci	r19, 0x1E	; 30
     1aa:	5d 59       	subi	r21, 0x9D	; 157
     1ac:	4e 7c       	andi	r20, 0xCE	; 206
     1ae:	12 11       	cpse	r17, r2
     1b0:	12 7c       	andi	r17, 0xC2	; 194
     1b2:	7f 49       	sbci	r23, 0x9F	; 159
     1b4:	49 49       	sbci	r20, 0x99	; 153
     1b6:	36 3e       	cpi	r19, 0xE6	; 230
     1b8:	41 41       	sbci	r20, 0x11	; 17
     1ba:	41 22       	and	r4, r17
     1bc:	7f 41       	sbci	r23, 0x1F	; 31
     1be:	41 41       	sbci	r20, 0x11	; 17
     1c0:	3e 7f       	andi	r19, 0xFE	; 254
     1c2:	49 49       	sbci	r20, 0x99	; 153
     1c4:	49 41       	sbci	r20, 0x19	; 25
     1c6:	7f 09       	sbc	r23, r15
     1c8:	09 09       	sbc	r16, r9
     1ca:	01 3e       	cpi	r16, 0xE1	; 225
     1cc:	41 41       	sbci	r20, 0x11	; 17
     1ce:	51 73       	andi	r21, 0x31	; 49
     1d0:	7f 08       	sbc	r7, r15
     1d2:	08 08       	sbc	r0, r8
     1d4:	7f 00       	.word	0x007f	; ????
     1d6:	41 7f       	andi	r20, 0xF1	; 241
     1d8:	41 00       	.word	0x0041	; ????
     1da:	20 40       	sbci	r18, 0x00	; 0
     1dc:	41 3f       	cpi	r20, 0xF1	; 241
     1de:	01 7f       	andi	r16, 0xF1	; 241
     1e0:	08 14       	cp	r0, r8
     1e2:	22 41       	sbci	r18, 0x12	; 18
     1e4:	7f 40       	sbci	r23, 0x0F	; 15
     1e6:	40 40       	sbci	r20, 0x00	; 0
     1e8:	40 7f       	andi	r20, 0xF0	; 240
     1ea:	02 1c       	adc	r0, r2
     1ec:	02 7f       	andi	r16, 0xF2	; 242
     1ee:	7f 04       	cpc	r7, r15
     1f0:	08 10       	cpse	r0, r8
     1f2:	7f 3e       	cpi	r23, 0xEF	; 239
     1f4:	41 41       	sbci	r20, 0x11	; 17
     1f6:	41 3e       	cpi	r20, 0xE1	; 225
     1f8:	7f 09       	sbc	r23, r15
     1fa:	09 09       	sbc	r16, r9
     1fc:	06 3e       	cpi	r16, 0xE6	; 230
     1fe:	41 51       	subi	r20, 0x11	; 17
     200:	21 5e       	subi	r18, 0xE1	; 225
     202:	7f 09       	sbc	r23, r15
     204:	19 29       	or	r17, r9
     206:	46 26       	eor	r4, r22
     208:	49 49       	sbci	r20, 0x99	; 153
     20a:	49 32       	cpi	r20, 0x29	; 41
     20c:	03 01       	movw	r0, r6
     20e:	7f 01       	movw	r14, r30
     210:	03 3f       	cpi	r16, 0xF3	; 243
     212:	40 40       	sbci	r20, 0x00	; 0
     214:	40 3f       	cpi	r20, 0xF0	; 240
     216:	1f 20       	and	r1, r15
     218:	40 20       	and	r4, r0
     21a:	1f 3f       	cpi	r17, 0xFF	; 255
     21c:	40 38       	cpi	r20, 0x80	; 128
     21e:	40 3f       	cpi	r20, 0xF0	; 240
     220:	63 14       	cp	r6, r3
     222:	08 14       	cp	r0, r8
     224:	63 03       	mulsu	r22, r19
     226:	04 78       	andi	r16, 0x84	; 132
     228:	04 03       	mulsu	r16, r20
     22a:	61 59       	subi	r22, 0x91	; 145
     22c:	49 4d       	sbci	r20, 0xD9	; 217
     22e:	43 00       	.word	0x0043	; ????
     230:	7f 41       	sbci	r23, 0x1F	; 31
     232:	41 41       	sbci	r20, 0x11	; 17
     234:	02 04       	cpc	r0, r2
     236:	08 10       	cpse	r0, r8
     238:	20 00       	.word	0x0020	; ????
     23a:	41 41       	sbci	r20, 0x11	; 17
     23c:	41 7f       	andi	r20, 0xF1	; 241
     23e:	04 02       	muls	r16, r20
     240:	01 02       	muls	r16, r17
     242:	04 40       	sbci	r16, 0x04	; 4
     244:	40 40       	sbci	r20, 0x00	; 0
     246:	40 40       	sbci	r20, 0x00	; 0
     248:	00 03       	mulsu	r16, r16
     24a:	07 08       	sbc	r0, r7
     24c:	00 20       	and	r0, r0
     24e:	54 54       	subi	r21, 0x44	; 68
     250:	78 40       	sbci	r23, 0x08	; 8
     252:	7f 28       	or	r7, r15
     254:	44 44       	sbci	r20, 0x44	; 68
     256:	38 38       	cpi	r19, 0x88	; 136
     258:	44 44       	sbci	r20, 0x44	; 68
     25a:	44 28       	or	r4, r4
     25c:	38 44       	sbci	r19, 0x48	; 72
     25e:	44 28       	or	r4, r4
     260:	7f 38       	cpi	r23, 0x8F	; 143
     262:	54 54       	subi	r21, 0x44	; 68
     264:	54 18       	sub	r5, r4
     266:	00 08       	sbc	r0, r0
     268:	7e 09       	sbc	r23, r14
     26a:	02 18       	sub	r0, r2
     26c:	a4 a4       	ldd	r10, Z+44	; 0x2c
     26e:	9c 78       	andi	r25, 0x8C	; 140
     270:	7f 08       	sbc	r7, r15
     272:	04 04       	cpc	r0, r4
     274:	78 00       	.word	0x0078	; ????
     276:	44 7d       	andi	r20, 0xD4	; 212
     278:	40 00       	.word	0x0040	; ????
     27a:	20 40       	sbci	r18, 0x00	; 0
     27c:	40 3d       	cpi	r20, 0xD0	; 208
     27e:	00 7f       	andi	r16, 0xF0	; 240
     280:	10 28       	or	r1, r0
     282:	44 00       	.word	0x0044	; ????
     284:	00 41       	sbci	r16, 0x10	; 16
     286:	7f 40       	sbci	r23, 0x0F	; 15
     288:	00 7c       	andi	r16, 0xC0	; 192
     28a:	04 78       	andi	r16, 0x84	; 132
     28c:	04 78       	andi	r16, 0x84	; 132
     28e:	7c 08       	sbc	r7, r12
     290:	04 04       	cpc	r0, r4
     292:	78 38       	cpi	r23, 0x88	; 136
     294:	44 44       	sbci	r20, 0x44	; 68
     296:	44 38       	cpi	r20, 0x84	; 132
     298:	fc 18       	sub	r15, r12
     29a:	24 24       	eor	r2, r4
     29c:	18 18       	sub	r1, r8
     29e:	24 24       	eor	r2, r4
     2a0:	18 fc       	.word	0xfc18	; ????
     2a2:	7c 08       	sbc	r7, r12
     2a4:	04 04       	cpc	r0, r4
     2a6:	08 48       	sbci	r16, 0x88	; 136
     2a8:	54 54       	subi	r21, 0x44	; 68
     2aa:	54 24       	eor	r5, r4
     2ac:	04 04       	cpc	r0, r4
     2ae:	3f 44       	sbci	r19, 0x4F	; 79
     2b0:	24 3c       	cpi	r18, 0xC4	; 196
     2b2:	40 40       	sbci	r20, 0x00	; 0
     2b4:	20 7c       	andi	r18, 0xC0	; 192
     2b6:	1c 20       	and	r1, r12
     2b8:	40 20       	and	r4, r0
     2ba:	1c 3c       	cpi	r17, 0xCC	; 204
     2bc:	40 30       	cpi	r20, 0x00	; 0
     2be:	40 3c       	cpi	r20, 0xC0	; 192
     2c0:	44 28       	or	r4, r4
     2c2:	10 28       	or	r1, r0
     2c4:	44 4c       	sbci	r20, 0xC4	; 196
     2c6:	90 90 90 7c 	lds	r9, 0x7C90	; 0x807c90 <__bss_end+0x7593>
     2ca:	44 64       	ori	r20, 0x44	; 68
     2cc:	54 4c       	sbci	r21, 0xC4	; 196
     2ce:	44 00       	.word	0x0044	; ????
     2d0:	08 36       	cpi	r16, 0x68	; 104
     2d2:	41 00       	.word	0x0041	; ????
     2d4:	00 00       	nop
     2d6:	77 00       	.word	0x0077	; ????
     2d8:	00 00       	nop
     2da:	41 36       	cpi	r20, 0x61	; 97
     2dc:	08 00       	.word	0x0008	; ????
     2de:	02 01       	movw	r0, r4
     2e0:	02 04       	cpc	r0, r2
     2e2:	02 3c       	cpi	r16, 0xC2	; 194
     2e4:	26 23       	and	r18, r22
     2e6:	26 3c       	cpi	r18, 0xC6	; 198
     2e8:	1e a1       	ldd	r17, Y+38	; 0x26
     2ea:	a1 61       	ori	r26, 0x11	; 17
     2ec:	12 3a       	cpi	r17, 0xA2	; 162
     2ee:	40 40       	sbci	r20, 0x00	; 0
     2f0:	20 7a       	andi	r18, 0xA0	; 160
     2f2:	38 54       	subi	r19, 0x48	; 72
     2f4:	54 55       	subi	r21, 0x54	; 84
     2f6:	59 21       	and	r21, r9
     2f8:	55 55       	subi	r21, 0x55	; 85
     2fa:	79 41       	sbci	r23, 0x19	; 25
     2fc:	22 54       	subi	r18, 0x42	; 66
     2fe:	54 78       	andi	r21, 0x84	; 132
     300:	42 21       	and	r20, r2
     302:	55 54       	subi	r21, 0x45	; 69
     304:	78 40       	sbci	r23, 0x08	; 8
     306:	20 54       	subi	r18, 0x40	; 64
     308:	55 79       	andi	r21, 0x95	; 149
     30a:	40 0c       	add	r4, r0
     30c:	1e 52       	subi	r17, 0x2E	; 46
     30e:	72 12       	cpse	r7, r18
     310:	39 55       	subi	r19, 0x59	; 89
     312:	55 55       	subi	r21, 0x55	; 85
     314:	59 39       	cpi	r21, 0x99	; 153
     316:	54 54       	subi	r21, 0x44	; 68
     318:	54 59       	subi	r21, 0x94	; 148
     31a:	39 55       	subi	r19, 0x59	; 89
     31c:	54 54       	subi	r21, 0x44	; 68
     31e:	58 00       	.word	0x0058	; ????
     320:	00 45       	sbci	r16, 0x50	; 80
     322:	7c 41       	sbci	r23, 0x1C	; 28
     324:	00 02       	muls	r16, r16
     326:	45 7d       	andi	r20, 0xD5	; 213
     328:	42 00       	.word	0x0042	; ????
     32a:	01 45       	sbci	r16, 0x51	; 81
     32c:	7c 40       	sbci	r23, 0x0C	; 12
     32e:	7d 12       	cpse	r7, r29
     330:	11 12       	cpse	r1, r17
     332:	7d f0       	brhs	.+30     	; 0x352 <__trampolines_end+0x2ea>
     334:	28 25       	eor	r18, r8
     336:	28 f0       	brcs	.+10     	; 0x342 <__trampolines_end+0x2da>
     338:	7c 54       	subi	r23, 0x4C	; 76
     33a:	55 45       	sbci	r21, 0x55	; 85
     33c:	00 20       	and	r0, r0
     33e:	54 54       	subi	r21, 0x44	; 68
     340:	7c 54       	subi	r23, 0x4C	; 76
     342:	7c 0a       	sbc	r7, r28
     344:	09 7f       	andi	r16, 0xF9	; 249
     346:	49 32       	cpi	r20, 0x29	; 41
     348:	49 49       	sbci	r20, 0x99	; 153
     34a:	49 32       	cpi	r20, 0x29	; 41
     34c:	3a 44       	sbci	r19, 0x4A	; 74
     34e:	44 44       	sbci	r20, 0x44	; 68
     350:	3a 32       	cpi	r19, 0x2A	; 42
     352:	4a 48       	sbci	r20, 0x8A	; 138
     354:	48 30       	cpi	r20, 0x08	; 8
     356:	3a 41       	sbci	r19, 0x1A	; 26
     358:	41 21       	and	r20, r1
     35a:	7a 3a       	cpi	r23, 0xAA	; 170
     35c:	42 40       	sbci	r20, 0x02	; 2
     35e:	20 78       	andi	r18, 0x80	; 128
     360:	00 9d       	mul	r16, r0
     362:	a0 a0       	ldd	r10, Z+32	; 0x20
     364:	7d 3d       	cpi	r23, 0xDD	; 221
     366:	42 42       	sbci	r20, 0x22	; 34
     368:	42 3d       	cpi	r20, 0xD2	; 210
     36a:	3d 40       	sbci	r19, 0x0D	; 13
     36c:	40 40       	sbci	r20, 0x00	; 0
     36e:	3d 3c       	cpi	r19, 0xCD	; 205
     370:	24 ff       	sbrs	r18, 4
     372:	24 24       	eor	r2, r4
     374:	48 7e       	andi	r20, 0xE8	; 232
     376:	49 43       	sbci	r20, 0x39	; 57
     378:	66 2b       	or	r22, r22
     37a:	2f fc       	.word	0xfc2f	; ????
     37c:	2f 2b       	or	r18, r31
     37e:	ff 09       	sbc	r31, r15
     380:	29 f6       	brne	.-118    	; 0x30c <__trampolines_end+0x2a4>
     382:	20 c0       	rjmp	.+64     	; 0x3c4 <__trampolines_end+0x35c>
     384:	88 7e       	andi	r24, 0xE8	; 232
     386:	09 03       	fmul	r16, r17
     388:	20 54       	subi	r18, 0x40	; 64
     38a:	54 79       	andi	r21, 0x94	; 148
     38c:	41 00       	.word	0x0041	; ????
     38e:	00 44       	sbci	r16, 0x40	; 64
     390:	7d 41       	sbci	r23, 0x1D	; 29
     392:	30 48       	sbci	r19, 0x80	; 128
     394:	48 4a       	sbci	r20, 0xA8	; 168
     396:	32 38       	cpi	r19, 0x82	; 130
     398:	40 40       	sbci	r20, 0x00	; 0
     39a:	22 7a       	andi	r18, 0xA2	; 162
     39c:	00 7a       	andi	r16, 0xA0	; 160
     39e:	0a 0a       	sbc	r0, r26
     3a0:	72 7d       	andi	r23, 0xD2	; 210
     3a2:	0d 19       	sub	r16, r13
     3a4:	31 7d       	andi	r19, 0xD1	; 209
     3a6:	26 29       	or	r18, r6
     3a8:	29 2f       	mov	r18, r25
     3aa:	28 26       	eor	r2, r24
     3ac:	29 29       	or	r18, r9
     3ae:	29 26       	eor	r2, r25
     3b0:	30 48       	sbci	r19, 0x80	; 128
     3b2:	4d 40       	sbci	r20, 0x0D	; 13
     3b4:	20 38       	cpi	r18, 0x80	; 128
     3b6:	08 08       	sbc	r0, r8
     3b8:	08 08       	sbc	r0, r8
     3ba:	08 08       	sbc	r0, r8
     3bc:	08 08       	sbc	r0, r8
     3be:	38 2f       	mov	r19, r24
     3c0:	10 c8       	rjmp	.-4064   	; 0xfffff3e2 <__eeprom_end+0xff7ef3e2>
     3c2:	ac ba       	out	0x1c, r10	; 28
     3c4:	2f 10       	cpse	r2, r15
     3c6:	28 34       	cpi	r18, 0x48	; 72
     3c8:	fa 00       	.word	0x00fa	; ????
     3ca:	00 7b       	andi	r16, 0xB0	; 176
     3cc:	00 00       	nop
     3ce:	08 14       	cp	r0, r8
     3d0:	2a 14       	cp	r2, r10
     3d2:	22 22       	and	r2, r18
     3d4:	14 2a       	or	r1, r20
     3d6:	14 08       	sbc	r1, r4
     3d8:	aa 00       	.word	0x00aa	; ????
     3da:	55 00       	.word	0x0055	; ????
     3dc:	aa aa       	std	Y+50, r10	; 0x32
     3de:	55 aa       	std	Z+53, r5	; 0x35
     3e0:	55 aa       	std	Z+53, r5	; 0x35
     3e2:	00 00       	nop
     3e4:	00 ff       	sbrs	r16, 0
     3e6:	00 10       	cpse	r0, r0
     3e8:	10 10       	cpse	r1, r0
     3ea:	ff 00       	.word	0x00ff	; ????
     3ec:	14 14       	cp	r1, r4
     3ee:	14 ff       	sbrs	r17, 4
     3f0:	00 10       	cpse	r0, r0
     3f2:	10 ff       	sbrs	r17, 0
     3f4:	00 ff       	sbrs	r16, 0
     3f6:	10 10       	cpse	r1, r0
     3f8:	f0 10       	cpse	r15, r0
     3fa:	f0 14       	cp	r15, r0
     3fc:	14 14       	cp	r1, r4
     3fe:	fc 00       	.word	0x00fc	; ????
     400:	14 14       	cp	r1, r4
     402:	f7 00       	.word	0x00f7	; ????
     404:	ff 00       	.word	0x00ff	; ????
     406:	00 ff       	sbrs	r16, 0
     408:	00 ff       	sbrs	r16, 0
     40a:	14 14       	cp	r1, r4
     40c:	f4 04       	cpc	r15, r4
     40e:	fc 14       	cp	r15, r12
     410:	14 17       	cp	r17, r20
     412:	10 1f       	adc	r17, r16
     414:	10 10       	cpse	r1, r0
     416:	1f 10       	cpse	r1, r15
     418:	1f 14       	cp	r1, r15
     41a:	14 14       	cp	r1, r4
     41c:	1f 00       	.word	0x001f	; ????
     41e:	10 10       	cpse	r1, r0
     420:	10 f0       	brcs	.+4      	; 0x426 <__LOCK_REGION_LENGTH__+0x26>
     422:	00 00       	nop
     424:	00 00       	nop
     426:	1f 10       	cpse	r1, r15
     428:	10 10       	cpse	r1, r0
     42a:	10 1f       	adc	r17, r16
     42c:	10 10       	cpse	r1, r0
     42e:	10 10       	cpse	r1, r0
     430:	f0 10       	cpse	r15, r0
     432:	00 00       	nop
     434:	00 ff       	sbrs	r16, 0
     436:	10 10       	cpse	r1, r0
     438:	10 10       	cpse	r1, r0
     43a:	10 10       	cpse	r1, r0
     43c:	10 10       	cpse	r1, r0
     43e:	10 ff       	sbrs	r17, 0
     440:	10 00       	.word	0x0010	; ????
     442:	00 00       	nop
     444:	ff 14       	cp	r15, r15
     446:	00 00       	nop
     448:	ff 00       	.word	0x00ff	; ????
     44a:	ff 00       	.word	0x00ff	; ????
     44c:	00 1f       	adc	r16, r16
     44e:	10 17       	cp	r17, r16
     450:	00 00       	nop
     452:	fc 04       	cpc	r15, r12
     454:	f4 14       	cp	r15, r4
     456:	14 17       	cp	r17, r20
     458:	10 17       	cp	r17, r16
     45a:	14 14       	cp	r1, r4
     45c:	f4 04       	cpc	r15, r4
     45e:	f4 00       	.word	0x00f4	; ????
     460:	00 ff       	sbrs	r16, 0
     462:	00 f7       	brcc	.-64     	; 0x424 <__LOCK_REGION_LENGTH__+0x24>
     464:	14 14       	cp	r1, r4
     466:	14 14       	cp	r1, r4
     468:	14 14       	cp	r1, r4
     46a:	14 f7       	brge	.-60     	; 0x430 <__LOCK_REGION_LENGTH__+0x30>
     46c:	00 f7       	brcc	.-64     	; 0x42e <__LOCK_REGION_LENGTH__+0x2e>
     46e:	14 14       	cp	r1, r4
     470:	14 17       	cp	r17, r20
     472:	14 10       	cpse	r1, r4
     474:	10 1f       	adc	r17, r16
     476:	10 1f       	adc	r17, r16
     478:	14 14       	cp	r1, r4
     47a:	14 f4       	brge	.+4      	; 0x480 <__LOCK_REGION_LENGTH__+0x80>
     47c:	14 10       	cpse	r1, r4
     47e:	10 f0       	brcs	.+4      	; 0x484 <__LOCK_REGION_LENGTH__+0x84>
     480:	10 f0       	brcs	.+4      	; 0x486 <__LOCK_REGION_LENGTH__+0x86>
     482:	00 00       	nop
     484:	1f 10       	cpse	r1, r15
     486:	1f 00       	.word	0x001f	; ????
     488:	00 00       	nop
     48a:	1f 14       	cp	r1, r15
     48c:	00 00       	nop
     48e:	00 fc       	sbrc	r0, 0
     490:	14 00       	.word	0x0014	; ????
     492:	00 f0       	brcs	.+0      	; 0x494 <__LOCK_REGION_LENGTH__+0x94>
     494:	10 f0       	brcs	.+4      	; 0x49a <__LOCK_REGION_LENGTH__+0x9a>
     496:	10 10       	cpse	r1, r0
     498:	ff 10       	cpse	r15, r15
     49a:	ff 14       	cp	r15, r15
     49c:	14 14       	cp	r1, r4
     49e:	ff 14       	cp	r15, r15
     4a0:	10 10       	cpse	r1, r0
     4a2:	10 1f       	adc	r17, r16
     4a4:	00 00       	nop
     4a6:	00 00       	nop
     4a8:	f0 10       	cpse	r15, r0
     4aa:	ff ff       	.word	0xffff	; ????
     4ac:	ff ff       	.word	0xffff	; ????
     4ae:	ff f0       	brie	.+62     	; 0x4ee <__LOCK_REGION_LENGTH__+0xee>
     4b0:	f0 f0       	brcs	.+60     	; 0x4ee <__LOCK_REGION_LENGTH__+0xee>
     4b2:	f0 f0       	brcs	.+60     	; 0x4f0 <__LOCK_REGION_LENGTH__+0xf0>
     4b4:	ff ff       	.word	0xffff	; ????
     4b6:	ff 00       	.word	0x00ff	; ????
     4b8:	00 00       	nop
     4ba:	00 00       	nop
     4bc:	ff ff       	.word	0xffff	; ????
     4be:	0f 0f       	add	r16, r31
     4c0:	0f 0f       	add	r16, r31
     4c2:	0f 38       	cpi	r16, 0x8F	; 143
     4c4:	44 44       	sbci	r20, 0x44	; 68
     4c6:	38 44       	sbci	r19, 0x48	; 72
     4c8:	fc 4a       	sbci	r31, 0xAC	; 172
     4ca:	4a 4a       	sbci	r20, 0xAA	; 170
     4cc:	34 7e       	andi	r19, 0xE4	; 228
     4ce:	02 02       	muls	r16, r18
     4d0:	06 06       	cpc	r0, r22
     4d2:	02 7e       	andi	r16, 0xE2	; 226
     4d4:	02 7e       	andi	r16, 0xE2	; 226
     4d6:	02 63       	ori	r16, 0x32	; 50
     4d8:	55 49       	sbci	r21, 0x95	; 149
     4da:	41 63       	ori	r20, 0x31	; 49
     4dc:	38 44       	sbci	r19, 0x48	; 72
     4de:	44 3c       	cpi	r20, 0xC4	; 196
     4e0:	04 40       	sbci	r16, 0x04	; 4
     4e2:	7e 20       	and	r7, r14
     4e4:	1e 20       	and	r1, r14
     4e6:	06 02       	muls	r16, r22
     4e8:	7e 02       	muls	r23, r30
     4ea:	02 99       	sbic	0x00, 2	; 0
     4ec:	a5 e7       	ldi	r26, 0x75	; 117
     4ee:	a5 99       	sbic	0x14, 5	; 20
     4f0:	1c 2a       	or	r1, r28
     4f2:	49 2a       	or	r4, r25
     4f4:	1c 4c       	sbci	r17, 0xCC	; 204
     4f6:	72 01       	movw	r14, r4
     4f8:	72 4c       	sbci	r23, 0xC2	; 194
     4fa:	30 4a       	sbci	r19, 0xA0	; 160
     4fc:	4d 4d       	sbci	r20, 0xDD	; 221
     4fe:	30 30       	cpi	r19, 0x00	; 0
     500:	48 78       	andi	r20, 0x88	; 136
     502:	48 30       	cpi	r20, 0x08	; 8
     504:	bc 62       	ori	r27, 0x2C	; 44
     506:	5a 46       	sbci	r21, 0x6A	; 106
     508:	3d 3e       	cpi	r19, 0xED	; 237
     50a:	49 49       	sbci	r20, 0x99	; 153
     50c:	49 00       	.word	0x0049	; ????
     50e:	7e 01       	movw	r14, r28
     510:	01 01       	movw	r0, r2
     512:	7e 2a       	or	r7, r30
     514:	2a 2a       	or	r2, r26
     516:	2a 2a       	or	r2, r26
     518:	44 44       	sbci	r20, 0x44	; 68
     51a:	5f 44       	sbci	r21, 0x4F	; 79
     51c:	44 40       	sbci	r20, 0x04	; 4
     51e:	51 4a       	sbci	r21, 0xA1	; 161
     520:	44 40       	sbci	r20, 0x04	; 4
     522:	40 44       	sbci	r20, 0x40	; 64
     524:	4a 51       	subi	r20, 0x1A	; 26
     526:	40 00       	.word	0x0040	; ????
     528:	00 ff       	sbrs	r16, 0
     52a:	01 03       	mulsu	r16, r17
     52c:	e0 80       	ld	r14, Z
     52e:	ff 00       	.word	0x00ff	; ????
     530:	00 08       	sbc	r0, r0
     532:	08 6b       	ori	r16, 0xB8	; 184
     534:	6b 08       	sbc	r6, r11
     536:	36 12       	cpse	r3, r22
     538:	36 24       	eor	r3, r6
     53a:	36 06       	cpc	r3, r22
     53c:	0f 09       	sbc	r16, r15
     53e:	0f 06       	cpc	r0, r31
     540:	00 00       	nop
     542:	18 18       	sub	r1, r8
     544:	00 00       	nop
     546:	00 10       	cpse	r0, r0
     548:	10 00       	.word	0x0010	; ????
     54a:	30 40       	sbci	r19, 0x00	; 0
     54c:	ff 01       	movw	r30, r30
     54e:	01 00       	.word	0x0001	; ????
     550:	1f 01       	movw	r2, r30
     552:	01 1e       	adc	r0, r17
     554:	00 19       	sub	r16, r0
     556:	1d 17       	cp	r17, r29
     558:	12 00       	.word	0x0012	; ????
     55a:	3c 3c       	cpi	r19, 0xCC	; 204
     55c:	3c 3c       	cpi	r19, 0xCC	; 204
     55e:	00 00       	nop
     560:	00 00       	nop
	...

00000563 <_ZZ5usagevE3__c_8>:
     563:	68 65 6c 70 09 09 09 09 09 09 3a 09 77 69 6c 6c     help......:.will
     573:	20 70 72 69 6e 74 20 61 76 61 69 6c 61 62 6c 65      print available
     583:	20 63 6f 6d 6d 61 6e 64 73 20 61 6e 64 20 74 68      commands and th
     593:	65 69 72 20 75 73 61 67 65 00                       eir usage.

0000059d <_ZZ5usagevE3__c_7>:
     59d:	74 73 65 74 20 3c 74 65 6d 70 65 72 61 74 75 72     tset <temperatur
     5ad:	65 20 69 6e 20 43 3e 09 3a 09 73 65 74 20 74 68     e in C>.:.set th
     5bd:	65 20 73 61 66 65 20 74 65 6d 70 65 72 61 74 75     e safe temperatu
     5cd:	72 65 20 6c 69 6d 69 74 20 6f 66 20 74 68 65 20     re limit of the 
     5dd:	61 63 74 69 76 65 20 6c 6f 61 64 00                 active load.

000005e9 <_ZZ5usagevE3__c_6>:
     5e9:	74 65 6d 70 3f 09 09 09 09 09 09 3a 09 77 69 6c     temp?......:.wil
     5f9:	6c 20 72 65 74 75 72 6e 20 74 68 65 20 74 65 6d     l return the tem
     609:	70 65 72 61 74 75 72 65 20 6f 66 20 74 68 65 20     perature of the 
     619:	61 63 74 69 76 65 20 6c 6f 61 64 09 20 00           active load. .

00000627 <_ZZ5usagevE3__c_5>:
     627:	76 62 75 73 3f 09 09 09 09 09 09 3a 09 77 69 6c     vbus?......:.wil
     637:	6c 20 72 65 74 75 72 6e 20 76 62 75 73 20 76 61     l return vbus va
     647:	6c 75 65 09 09 09 09 09 09 09 20 00                 lue....... .

00000653 <_ZZ5usagevE3__c_4>:
     653:	69 62 75 73 3f 09 09 09 09 09 09 3a 09 77 69 6c     ibus?......:.wil
     663:	6c 20 72 65 74 75 72 6e 20 69 73 68 75 6e 74 20     l return ishunt 
     673:	76 61 6c 75 65 09 09 09 09 09 09 20 00              value...... .

00000680 <_ZZ5usagevE3__c_3>:
     680:	69 73 65 74 3f 09 09 09 09 09 09 3a 09 77 69 6c     iset?......:.wil
     690:	6c 20 72 65 74 75 72 6e 20 69 73 65 74 20 76 61     l return iset va
     6a0:	6c 75 65 09 09 09 09 09 09 09 20 00                 lue....... .

000006ac <_ZZ5usagevE3__c_2>:
     6ac:	73 74 61 74 3f 09 09 09 09 09 09 3a 09 77 69 6c     stat?......:.wil
     6bc:	6c 20 72 65 74 75 72 6e 20 73 74 61 74 75 73 20     l return status 
     6cc:	4f 4e 20 6f 72 20 4f 46 46 09 09 09 09 09 20 00     ON or OFF..... .

000006dc <_ZZ5usagevE3__c_1>:
     6dc:	69 6f 66 66 09 09 09 09 09 09 3a 09 74 75 72 6e     ioff......:.turn
     6ec:	20 6f 66 66 20 6c 6f 61 64 09 09 09 09 09 09 09      off load.......
     6fc:	09 09 20 00                                         .. .

00000700 <_ZZ5usagevE3__c_0>:
     700:	69 6f 6e 09 09 09 09 09 09 3a 09 74 75 72 6e 20     ion......:.turn 
     710:	6f 6e 20 6c 6f 61 64 09 09 09 09 09 09 09 09 09     on load.........
     720:	20 00                                                .

00000722 <_ZZ5usagevE3__c>:
     722:	69 73 65 74 20 3c 63 75 72 72 65 6e 74 20 69 6e     iset <current in
     732:	20 6d 41 3e 09 09 3a 09 73 65 74 20 63 75 72 72      mA>..:.set curr
     742:	65 6e 74 20 76 61 6c 75 65 09 09 09 09 09 09 09     ent value.......
     752:	09 20 00                                            . .

00000755 <_ZZ13readSerialCmdvE3__c_11>:
     755:	45 52 52 4f 52 28 21 29 00                          ERROR(!).

0000075e <_ZZ13readSerialCmdvE3__c_10>:
     75e:	45 52 52 4f 52 5f 31 00                             ERROR_1.

00000766 <_ZZ13readSerialCmdvE3__c_9>:
     766:	43 00                                               C.

00000768 <_ZZ13readSerialCmdvE3__c_8>:
     768:	54 45 4d 50 45 52 41 54 55 52 45 3a 00              TEMPERATURE:.

00000775 <_ZZ13readSerialCmdvE3__c_7>:
     775:	56 00                                               V.

00000777 <_ZZ13readSerialCmdvE3__c_6>:
     777:	56 42 55 53 3a 00                                   VBUS:.

0000077d <_ZZ13readSerialCmdvE3__c_5>:
     77d:	6d 41 00                                            mA.

00000780 <_ZZ13readSerialCmdvE3__c_4>:
     780:	49 42 55 53 3a 00                                   IBUS:.

00000786 <_ZZ13readSerialCmdvE3__c_3>:
     786:	6d 41 00                                            mA.

00000789 <_ZZ13readSerialCmdvE3__c_2>:
     789:	49 53 45 54 3a 00                                   ISET:.

0000078f <_ZZ13readSerialCmdvE3__c_1>:
     78f:	4f 46 46 00                                         OFF.

00000793 <_ZZ13readSerialCmdvE3__c_0>:
     793:	4f 4e 00                                            ON.

00000796 <_ZZ13readSerialCmdvE3__c>:
     796:	45 52 52 4f 52 5f 31 00                             ERROR_1.

0000079e <_ZZ13displayUpdatevE3__c_1>:
     79e:	54 65 6d 70 3a 00                                   Temp:.

000007a4 <_ZZ13displayUpdatevE3__c_0>:
     7a4:	56 69 6e 3a 00                                      Vin:.

000007a9 <_ZZ13displayUpdatevE3__c>:
     7a9:	43 75 72 3a 00                                      Cur:.

000007ae <_ZZ12initPlatformvE3__c_2>:
     7ae:	20 20 20 4c 4f 41 44 00                                LOAD.

000007b6 <_ZZ12initPlatformvE3__c_1>:
     7b6:	45 4c 45 43 54 52 4f 4e 49 43 00                    ELECTRONIC.

000007c1 <_ZZ12initPlatformvE3__c_0>:
     7c1:	20 20 4e 45 55 54 52 4f 4e 00                         NEUTRON.

000007cb <_ZZ12initPlatformvE3__c>:
     7cb:	45 4c 45 43 54 52 4f 4e 49 43 5f 4c 4f 41 44 5f     ELECTRONIC_LOAD_
     7db:	49 4e 49 54 49 41 4c 49 53 45 44 0d 0a 00           INITIALISED...

000007e9 <_ZL5cmd10>:
     7e9:	68 65 6c 70 00                                      help.

000007ee <_ZL4cmd9>:
     7ee:	74 73 65 74 00                                      tset.

000007f3 <_ZL4cmd8>:
     7f3:	74 65 6d 70 3f 00                                   temp?.

000007f9 <_ZL4cmd7>:
     7f9:	76 62 75 73 3f 00                                   vbus?.

000007ff <_ZL4cmd6>:
     7ff:	69 62 75 73 3f 00                                   ibus?.

00000805 <_ZL4cmd5>:
     805:	69 73 65 74 3f 00                                   iset?.

0000080b <_ZL4cmd4>:
     80b:	73 74 61 74 3f 00                                   stat?.

00000811 <_ZL4cmd3>:
     811:	69 6f 66 66 00                                      ioff.

00000816 <_ZL4cmd2>:
     816:	69 6f 6e 00                                         ion.

0000081a <_ZL4cmd1>:
     81a:	69 73 65 74 00 00                                   iset..

00000820 <__ctors_start>:
     820:	ac 0e       	add	r10, r28
     822:	68 16       	cp	r6, r24

00000824 <__ctors_end>:
     824:	90 16       	cp	r9, r16

00000826 <__dtors_end>:
     826:	11 24       	eor	r1, r1
     828:	1f be       	out	0x3f, r1	; 63
     82a:	cf ef       	ldi	r28, 0xFF	; 255
     82c:	d8 e0       	ldi	r29, 0x08	; 8
     82e:	de bf       	out	0x3e, r29	; 62
     830:	cd bf       	out	0x3d, r28	; 61

00000832 <__do_copy_data>:
     832:	15 e0       	ldi	r17, 0x05	; 5
     834:	a0 e0       	ldi	r26, 0x00	; 0
     836:	b1 e0       	ldi	r27, 0x01	; 1
     838:	e2 ef       	ldi	r30, 0xF2	; 242
     83a:	ff e3       	ldi	r31, 0x3F	; 63
     83c:	02 c0       	rjmp	.+4      	; 0x842 <__do_copy_data+0x10>
     83e:	05 90       	lpm	r0, Z+
     840:	0d 92       	st	X+, r0
     842:	a8 38       	cpi	r26, 0x88	; 136
     844:	b1 07       	cpc	r27, r17
     846:	d9 f7       	brne	.-10     	; 0x83e <__do_copy_data+0xc>

00000848 <__do_clear_bss>:
     848:	26 e0       	ldi	r18, 0x06	; 6
     84a:	a8 e8       	ldi	r26, 0x88	; 136
     84c:	b5 e0       	ldi	r27, 0x05	; 5
     84e:	01 c0       	rjmp	.+2      	; 0x852 <.do_clear_bss_start>

00000850 <.do_clear_bss_loop>:
     850:	1d 92       	st	X+, r1

00000852 <.do_clear_bss_start>:
     852:	ad 3f       	cpi	r26, 0xFD	; 253
     854:	b2 07       	cpc	r27, r18
     856:	e1 f7       	brne	.-8      	; 0x850 <.do_clear_bss_loop>

00000858 <__do_global_ctors>:
     858:	14 e0       	ldi	r17, 0x04	; 4
     85a:	c2 e1       	ldi	r28, 0x12	; 18
     85c:	d4 e0       	ldi	r29, 0x04	; 4
     85e:	04 c0       	rjmp	.+8      	; 0x868 <__do_global_ctors+0x10>
     860:	21 97       	sbiw	r28, 0x01	; 1
     862:	fe 01       	movw	r30, r28
     864:	0e 94 6f 1e 	call	0x3cde	; 0x3cde <__tablejump2__>
     868:	c0 31       	cpi	r28, 0x10	; 16
     86a:	d1 07       	cpc	r29, r17
     86c:	c9 f7       	brne	.-14     	; 0x860 <__do_global_ctors+0x8>
     86e:	0e 94 fa 17 	call	0x2ff4	; 0x2ff4 <main>
     872:	0c 94 ec 1f 	jmp	0x3fd8	; 0x3fd8 <__do_global_dtors>

00000876 <__bad_interrupt>:
     876:	0c 94 00 00 	jmp	0	; 0x0 <__vectors>

0000087a <_ZN12Adafruit_GFX8drawLineEiiiij>:
     87a:	2f 92       	push	r2
     87c:	3f 92       	push	r3
     87e:	4f 92       	push	r4
     880:	5f 92       	push	r5
     882:	6f 92       	push	r6
     884:	7f 92       	push	r7
     886:	8f 92       	push	r8
     888:	9f 92       	push	r9
     88a:	af 92       	push	r10
     88c:	bf 92       	push	r11
     88e:	cf 92       	push	r12
     890:	df 92       	push	r13
     892:	ef 92       	push	r14
     894:	ff 92       	push	r15
     896:	0f 93       	push	r16
     898:	1f 93       	push	r17
     89a:	cf 93       	push	r28
     89c:	df 93       	push	r29
     89e:	00 d0       	rcall	.+0      	; 0x8a0 <_ZN12Adafruit_GFX8drawLineEiiiij+0x26>
     8a0:	00 d0       	rcall	.+0      	; 0x8a2 <_ZN12Adafruit_GFX8drawLineEiiiij+0x28>
     8a2:	00 d0       	rcall	.+0      	; 0x8a4 <_ZN12Adafruit_GFX8drawLineEiiiij+0x2a>
     8a4:	cd b7       	in	r28, 0x3d	; 61
     8a6:	de b7       	in	r29, 0x3e	; 62
     8a8:	2c 01       	movw	r4, r24
     8aa:	7e 83       	std	Y+6, r23	; 0x06
     8ac:	6d 83       	std	Y+5, r22	; 0x05
     8ae:	6a 01       	movw	r12, r20
     8b0:	59 01       	movw	r10, r18
     8b2:	c8 01       	movw	r24, r16
     8b4:	fc 82       	std	Y+4, r15	; 0x04
     8b6:	eb 82       	std	Y+3, r14	; 0x03
     8b8:	48 01       	movw	r8, r16
     8ba:	84 1a       	sub	r8, r20
     8bc:	95 0a       	sbc	r9, r21
     8be:	97 fe       	sbrs	r9, 7
     8c0:	03 c0       	rjmp	.+6      	; 0x8c8 <_ZN12Adafruit_GFX8drawLineEiiiij+0x4e>
     8c2:	91 94       	neg	r9
     8c4:	81 94       	neg	r8
     8c6:	91 08       	sbc	r9, r1
     8c8:	35 01       	movw	r6, r10
     8ca:	2d 81       	ldd	r18, Y+5	; 0x05
     8cc:	3e 81       	ldd	r19, Y+6	; 0x06
     8ce:	62 1a       	sub	r6, r18
     8d0:	73 0a       	sbc	r7, r19
     8d2:	77 fe       	sbrs	r7, 7
     8d4:	03 c0       	rjmp	.+6      	; 0x8dc <_ZN12Adafruit_GFX8drawLineEiiiij+0x62>
     8d6:	71 94       	neg	r7
     8d8:	61 94       	neg	r6
     8da:	71 08       	sbc	r7, r1
     8dc:	68 14       	cp	r6, r8
     8de:	79 04       	cpc	r7, r9
     8e0:	5c f4       	brge	.+22     	; 0x8f8 <_ZN12Adafruit_GFX8drawLineEiiiij+0x7e>
     8e2:	3a 2d       	mov	r19, r10
     8e4:	2b 2d       	mov	r18, r11
     8e6:	5c 01       	movw	r10, r24
     8e8:	83 2f       	mov	r24, r19
     8ea:	92 2f       	mov	r25, r18
     8ec:	3d 81       	ldd	r19, Y+5	; 0x05
     8ee:	2e 81       	ldd	r18, Y+6	; 0x06
     8f0:	de 82       	std	Y+6, r13	; 0x06
     8f2:	cd 82       	std	Y+5, r12	; 0x05
     8f4:	c3 2e       	mov	r12, r19
     8f6:	d2 2e       	mov	r13, r18
     8f8:	ad 81       	ldd	r26, Y+5	; 0x05
     8fa:	be 81       	ldd	r27, Y+6	; 0x06
     8fc:	aa 16       	cp	r10, r26
     8fe:	bb 06       	cpc	r11, r27
     900:	5c f4       	brge	.+22     	; 0x918 <__stack+0x19>
     902:	3c 2d       	mov	r19, r12
     904:	2d 2d       	mov	r18, r13
     906:	6c 01       	movw	r12, r24
     908:	83 2f       	mov	r24, r19
     90a:	92 2f       	mov	r25, r18
     90c:	3d 81       	ldd	r19, Y+5	; 0x05
     90e:	2e 81       	ldd	r18, Y+6	; 0x06
     910:	be 82       	std	Y+6, r11	; 0x06
     912:	ad 82       	std	Y+5, r10	; 0x05
     914:	a3 2e       	mov	r10, r19
     916:	b2 2e       	mov	r11, r18
     918:	85 01       	movw	r16, r10
     91a:	2d 81       	ldd	r18, Y+5	; 0x05
     91c:	3e 81       	ldd	r19, Y+6	; 0x06
     91e:	02 1b       	sub	r16, r18
     920:	13 0b       	sbc	r17, r19
     922:	1c 01       	movw	r2, r24
     924:	2c 18       	sub	r2, r12
     926:	3d 08       	sbc	r3, r13
     928:	37 fe       	sbrs	r3, 7
     92a:	03 c0       	rjmp	.+6      	; 0x932 <__stack+0x33>
     92c:	31 94       	neg	r3
     92e:	21 94       	neg	r2
     930:	31 08       	sbc	r3, r1
     932:	78 01       	movw	r14, r16
     934:	17 ff       	sbrs	r17, 7
     936:	03 c0       	rjmp	.+6      	; 0x93e <__stack+0x3f>
     938:	3f ef       	ldi	r19, 0xFF	; 255
     93a:	e3 1a       	sub	r14, r19
     93c:	f3 0a       	sbc	r15, r19
     93e:	f5 94       	asr	r15
     940:	e7 94       	ror	r14
     942:	c8 16       	cp	r12, r24
     944:	d9 06       	cpc	r13, r25
     946:	2c f0       	brlt	.+10     	; 0x952 <__stack+0x53>
     948:	8f ef       	ldi	r24, 0xFF	; 255
     94a:	9f ef       	ldi	r25, 0xFF	; 255
     94c:	9a 83       	std	Y+2, r25	; 0x02
     94e:	89 83       	std	Y+1, r24	; 0x01
     950:	04 c0       	rjmp	.+8      	; 0x95a <__stack+0x5b>
     952:	a1 e0       	ldi	r26, 0x01	; 1
     954:	b0 e0       	ldi	r27, 0x00	; 0
     956:	ba 83       	std	Y+2, r27	; 0x02
     958:	a9 83       	std	Y+1, r26	; 0x01
     95a:	2d 81       	ldd	r18, Y+5	; 0x05
     95c:	3e 81       	ldd	r19, Y+6	; 0x06
     95e:	a2 16       	cp	r10, r18
     960:	b3 06       	cpc	r11, r19
     962:	24 f1       	brlt	.+72     	; 0x9ac <__stack+0xad>
     964:	d2 01       	movw	r26, r4
     966:	ed 91       	ld	r30, X+
     968:	fc 91       	ld	r31, X
     96a:	04 80       	ldd	r0, Z+4	; 0x04
     96c:	f5 81       	ldd	r31, Z+5	; 0x05
     96e:	e0 2d       	mov	r30, r0
     970:	2b 81       	ldd	r18, Y+3	; 0x03
     972:	3c 81       	ldd	r19, Y+4	; 0x04
     974:	68 14       	cp	r6, r8
     976:	79 04       	cpc	r7, r9
     978:	24 f4       	brge	.+8      	; 0x982 <__stack+0x83>
     97a:	4d 81       	ldd	r20, Y+5	; 0x05
     97c:	5e 81       	ldd	r21, Y+6	; 0x06
     97e:	b6 01       	movw	r22, r12
     980:	03 c0       	rjmp	.+6      	; 0x988 <__stack+0x89>
     982:	a6 01       	movw	r20, r12
     984:	6d 81       	ldd	r22, Y+5	; 0x05
     986:	7e 81       	ldd	r23, Y+6	; 0x06
     988:	c2 01       	movw	r24, r4
     98a:	09 95       	icall
     98c:	e2 18       	sub	r14, r2
     98e:	f3 08       	sbc	r15, r3
     990:	f7 fe       	sbrs	r15, 7
     992:	06 c0       	rjmp	.+12     	; 0x9a0 <__stack+0xa1>
     994:	29 81       	ldd	r18, Y+1	; 0x01
     996:	3a 81       	ldd	r19, Y+2	; 0x02
     998:	c2 0e       	add	r12, r18
     99a:	d3 1e       	adc	r13, r19
     99c:	e0 0e       	add	r14, r16
     99e:	f1 1e       	adc	r15, r17
     9a0:	8d 81       	ldd	r24, Y+5	; 0x05
     9a2:	9e 81       	ldd	r25, Y+6	; 0x06
     9a4:	01 96       	adiw	r24, 0x01	; 1
     9a6:	9e 83       	std	Y+6, r25	; 0x06
     9a8:	8d 83       	std	Y+5, r24	; 0x05
     9aa:	d7 cf       	rjmp	.-82     	; 0x95a <__stack+0x5b>
     9ac:	26 96       	adiw	r28, 0x06	; 6
     9ae:	0f b6       	in	r0, 0x3f	; 63
     9b0:	f8 94       	cli
     9b2:	de bf       	out	0x3e, r29	; 62
     9b4:	0f be       	out	0x3f, r0	; 63
     9b6:	cd bf       	out	0x3d, r28	; 61
     9b8:	df 91       	pop	r29
     9ba:	cf 91       	pop	r28
     9bc:	1f 91       	pop	r17
     9be:	0f 91       	pop	r16
     9c0:	ff 90       	pop	r15
     9c2:	ef 90       	pop	r14
     9c4:	df 90       	pop	r13
     9c6:	cf 90       	pop	r12
     9c8:	bf 90       	pop	r11
     9ca:	af 90       	pop	r10
     9cc:	9f 90       	pop	r9
     9ce:	8f 90       	pop	r8
     9d0:	7f 90       	pop	r7
     9d2:	6f 90       	pop	r6
     9d4:	5f 90       	pop	r5
     9d6:	4f 90       	pop	r4
     9d8:	3f 90       	pop	r3
     9da:	2f 90       	pop	r2
     9dc:	08 95       	ret

000009de <_ZN12Adafruit_GFX8drawRectEiiiij>:
     9de:	6f 92       	push	r6
     9e0:	7f 92       	push	r7
     9e2:	8f 92       	push	r8
     9e4:	9f 92       	push	r9
     9e6:	af 92       	push	r10
     9e8:	bf 92       	push	r11
     9ea:	cf 92       	push	r12
     9ec:	df 92       	push	r13
     9ee:	ef 92       	push	r14
     9f0:	ff 92       	push	r15
     9f2:	0f 93       	push	r16
     9f4:	1f 93       	push	r17
     9f6:	cf 93       	push	r28
     9f8:	df 93       	push	r29
     9fa:	ec 01       	movw	r28, r24
     9fc:	4b 01       	movw	r8, r22
     9fe:	5a 01       	movw	r10, r20
     a00:	69 01       	movw	r12, r18
     a02:	38 01       	movw	r6, r16
     a04:	e8 81       	ld	r30, Y
     a06:	f9 81       	ldd	r31, Y+1	; 0x01
     a08:	02 84       	ldd	r0, Z+10	; 0x0a
     a0a:	f3 85       	ldd	r31, Z+11	; 0x0b
     a0c:	e0 2d       	mov	r30, r0
     a0e:	87 01       	movw	r16, r14
     a10:	09 95       	icall
     a12:	a5 01       	movw	r20, r10
     a14:	46 0d       	add	r20, r6
     a16:	57 1d       	adc	r21, r7
     a18:	41 50       	subi	r20, 0x01	; 1
     a1a:	51 09       	sbc	r21, r1
     a1c:	e8 81       	ld	r30, Y
     a1e:	f9 81       	ldd	r31, Y+1	; 0x01
     a20:	02 84       	ldd	r0, Z+10	; 0x0a
     a22:	f3 85       	ldd	r31, Z+11	; 0x0b
     a24:	e0 2d       	mov	r30, r0
     a26:	96 01       	movw	r18, r12
     a28:	b4 01       	movw	r22, r8
     a2a:	ce 01       	movw	r24, r28
     a2c:	09 95       	icall
     a2e:	e8 81       	ld	r30, Y
     a30:	f9 81       	ldd	r31, Y+1	; 0x01
     a32:	00 84       	ldd	r0, Z+8	; 0x08
     a34:	f1 85       	ldd	r31, Z+9	; 0x09
     a36:	e0 2d       	mov	r30, r0
     a38:	93 01       	movw	r18, r6
     a3a:	a5 01       	movw	r20, r10
     a3c:	b4 01       	movw	r22, r8
     a3e:	ce 01       	movw	r24, r28
     a40:	09 95       	icall
     a42:	c8 0c       	add	r12, r8
     a44:	d9 1c       	adc	r13, r9
     a46:	b6 01       	movw	r22, r12
     a48:	61 50       	subi	r22, 0x01	; 1
     a4a:	71 09       	sbc	r23, r1
     a4c:	e8 81       	ld	r30, Y
     a4e:	f9 81       	ldd	r31, Y+1	; 0x01
     a50:	00 84       	ldd	r0, Z+8	; 0x08
     a52:	f1 85       	ldd	r31, Z+9	; 0x09
     a54:	e0 2d       	mov	r30, r0
     a56:	93 01       	movw	r18, r6
     a58:	a5 01       	movw	r20, r10
     a5a:	ce 01       	movw	r24, r28
     a5c:	09 95       	icall
     a5e:	df 91       	pop	r29
     a60:	cf 91       	pop	r28
     a62:	1f 91       	pop	r17
     a64:	0f 91       	pop	r16
     a66:	ff 90       	pop	r15
     a68:	ef 90       	pop	r14
     a6a:	df 90       	pop	r13
     a6c:	cf 90       	pop	r12
     a6e:	bf 90       	pop	r11
     a70:	af 90       	pop	r10
     a72:	9f 90       	pop	r9
     a74:	8f 90       	pop	r8
     a76:	7f 90       	pop	r7
     a78:	6f 90       	pop	r6
     a7a:	08 95       	ret

00000a7c <_ZN12Adafruit_GFX13drawFastVLineEiiij>:
     a7c:	ef 92       	push	r14
     a7e:	ff 92       	push	r15
     a80:	0f 93       	push	r16
     a82:	1f 93       	push	r17
     a84:	24 0f       	add	r18, r20
     a86:	35 1f       	adc	r19, r21
     a88:	21 50       	subi	r18, 0x01	; 1
     a8a:	31 09       	sbc	r19, r1
     a8c:	dc 01       	movw	r26, r24
     a8e:	ed 91       	ld	r30, X+
     a90:	fc 91       	ld	r31, X
     a92:	06 80       	ldd	r0, Z+6	; 0x06
     a94:	f7 81       	ldd	r31, Z+7	; 0x07
     a96:	e0 2d       	mov	r30, r0
     a98:	78 01       	movw	r14, r16
     a9a:	89 01       	movw	r16, r18
     a9c:	9b 01       	movw	r18, r22
     a9e:	09 95       	icall
     aa0:	1f 91       	pop	r17
     aa2:	0f 91       	pop	r16
     aa4:	ff 90       	pop	r15
     aa6:	ef 90       	pop	r14
     aa8:	08 95       	ret

00000aaa <_ZN12Adafruit_GFX13drawFastHLineEiiij>:
     aaa:	ef 92       	push	r14
     aac:	ff 92       	push	r15
     aae:	0f 93       	push	r16
     ab0:	1f 93       	push	r17
     ab2:	26 0f       	add	r18, r22
     ab4:	37 1f       	adc	r19, r23
     ab6:	21 50       	subi	r18, 0x01	; 1
     ab8:	31 09       	sbc	r19, r1
     aba:	dc 01       	movw	r26, r24
     abc:	ed 91       	ld	r30, X+
     abe:	fc 91       	ld	r31, X
     ac0:	06 80       	ldd	r0, Z+6	; 0x06
     ac2:	f7 81       	ldd	r31, Z+7	; 0x07
     ac4:	e0 2d       	mov	r30, r0
     ac6:	78 01       	movw	r14, r16
     ac8:	8a 01       	movw	r16, r20
     aca:	09 95       	icall
     acc:	1f 91       	pop	r17
     ace:	0f 91       	pop	r16
     ad0:	ff 90       	pop	r15
     ad2:	ef 90       	pop	r14
     ad4:	08 95       	ret

00000ad6 <_ZN12Adafruit_GFX8fillRectEiiiij>:
     ad6:	6f 92       	push	r6
     ad8:	7f 92       	push	r7
     ada:	8f 92       	push	r8
     adc:	9f 92       	push	r9
     ade:	af 92       	push	r10
     ae0:	bf 92       	push	r11
     ae2:	cf 92       	push	r12
     ae4:	df 92       	push	r13
     ae6:	ef 92       	push	r14
     ae8:	ff 92       	push	r15
     aea:	0f 93       	push	r16
     aec:	1f 93       	push	r17
     aee:	cf 93       	push	r28
     af0:	df 93       	push	r29
     af2:	6c 01       	movw	r12, r24
     af4:	5a 01       	movw	r10, r20
     af6:	48 01       	movw	r8, r16
     af8:	eb 01       	movw	r28, r22
     afa:	3b 01       	movw	r6, r22
     afc:	62 0e       	add	r6, r18
     afe:	73 1e       	adc	r7, r19
     b00:	c6 15       	cp	r28, r6
     b02:	d7 05       	cpc	r29, r7
     b04:	74 f4       	brge	.+28     	; 0xb22 <_ZN12Adafruit_GFX8fillRectEiiiij+0x4c>
     b06:	d6 01       	movw	r26, r12
     b08:	ed 91       	ld	r30, X+
     b0a:	fc 91       	ld	r31, X
     b0c:	00 84       	ldd	r0, Z+8	; 0x08
     b0e:	f1 85       	ldd	r31, Z+9	; 0x09
     b10:	e0 2d       	mov	r30, r0
     b12:	87 01       	movw	r16, r14
     b14:	94 01       	movw	r18, r8
     b16:	a5 01       	movw	r20, r10
     b18:	be 01       	movw	r22, r28
     b1a:	c6 01       	movw	r24, r12
     b1c:	09 95       	icall
     b1e:	21 96       	adiw	r28, 0x01	; 1
     b20:	ef cf       	rjmp	.-34     	; 0xb00 <_ZN12Adafruit_GFX8fillRectEiiiij+0x2a>
     b22:	df 91       	pop	r29
     b24:	cf 91       	pop	r28
     b26:	1f 91       	pop	r17
     b28:	0f 91       	pop	r16
     b2a:	ff 90       	pop	r15
     b2c:	ef 90       	pop	r14
     b2e:	df 90       	pop	r13
     b30:	cf 90       	pop	r12
     b32:	bf 90       	pop	r11
     b34:	af 90       	pop	r10
     b36:	9f 90       	pop	r9
     b38:	8f 90       	pop	r8
     b3a:	7f 90       	pop	r7
     b3c:	6f 90       	pop	r6
     b3e:	08 95       	ret

00000b40 <_ZN12Adafruit_GFX10fillScreenEj>:
     b40:	ef 92       	push	r14
     b42:	ff 92       	push	r15
     b44:	0f 93       	push	r16
     b46:	1f 93       	push	r17
     b48:	dc 01       	movw	r26, r24
     b4a:	1a 96       	adiw	r26, 0x0a	; 10
     b4c:	0d 91       	ld	r16, X+
     b4e:	1c 91       	ld	r17, X
     b50:	1b 97       	sbiw	r26, 0x0b	; 11
     b52:	18 96       	adiw	r26, 0x08	; 8
     b54:	2d 91       	ld	r18, X+
     b56:	3c 91       	ld	r19, X
     b58:	19 97       	sbiw	r26, 0x09	; 9
     b5a:	ed 91       	ld	r30, X+
     b5c:	fc 91       	ld	r31, X
     b5e:	06 84       	ldd	r0, Z+14	; 0x0e
     b60:	f7 85       	ldd	r31, Z+15	; 0x0f
     b62:	e0 2d       	mov	r30, r0
     b64:	7b 01       	movw	r14, r22
     b66:	40 e0       	ldi	r20, 0x00	; 0
     b68:	50 e0       	ldi	r21, 0x00	; 0
     b6a:	60 e0       	ldi	r22, 0x00	; 0
     b6c:	70 e0       	ldi	r23, 0x00	; 0
     b6e:	09 95       	icall
     b70:	1f 91       	pop	r17
     b72:	0f 91       	pop	r16
     b74:	ff 90       	pop	r15
     b76:	ef 90       	pop	r14
     b78:	08 95       	ret

00000b7a <_ZN12Adafruit_GFX13invertDisplayEh>:
     b7a:	08 95       	ret

00000b7c <_ZN12Adafruit_GFXC1Eii>:
     b7c:	fc 01       	movw	r30, r24
     b7e:	13 82       	std	Z+3, r1	; 0x03
     b80:	12 82       	std	Z+2, r1	; 0x02
     b82:	86 e2       	ldi	r24, 0x26	; 38
     b84:	95 e0       	ldi	r25, 0x05	; 5
     b86:	91 83       	std	Z+1, r25	; 0x01
     b88:	80 83       	st	Z, r24
     b8a:	75 83       	std	Z+5, r23	; 0x05
     b8c:	64 83       	std	Z+4, r22	; 0x04
     b8e:	57 83       	std	Z+7, r21	; 0x07
     b90:	46 83       	std	Z+6, r20	; 0x06
     b92:	71 87       	std	Z+9, r23	; 0x09
     b94:	60 87       	std	Z+8, r22	; 0x08
     b96:	53 87       	std	Z+11, r21	; 0x0b
     b98:	42 87       	std	Z+10, r20	; 0x0a
     b9a:	15 8a       	std	Z+21, r1	; 0x15
     b9c:	15 86       	std	Z+13, r1	; 0x0d
     b9e:	14 86       	std	Z+12, r1	; 0x0c
     ba0:	17 86       	std	Z+15, r1	; 0x0f
     ba2:	16 86       	std	Z+14, r1	; 0x0e
     ba4:	81 e0       	ldi	r24, 0x01	; 1
     ba6:	84 8b       	std	Z+20, r24	; 0x14
     ba8:	2f ef       	ldi	r18, 0xFF	; 255
     baa:	3f ef       	ldi	r19, 0xFF	; 255
     bac:	33 8b       	std	Z+19, r19	; 0x13
     bae:	22 8b       	std	Z+18, r18	; 0x12
     bb0:	31 8b       	std	Z+17, r19	; 0x11
     bb2:	20 8b       	std	Z+16, r18	; 0x10
     bb4:	86 8b       	std	Z+22, r24	; 0x16
     bb6:	08 95       	ret

00000bb8 <_ZN12Adafruit_GFX8drawCharEiihjjh>:
     bb8:	2f 92       	push	r2
     bba:	3f 92       	push	r3
     bbc:	4f 92       	push	r4
     bbe:	5f 92       	push	r5
     bc0:	6f 92       	push	r6
     bc2:	7f 92       	push	r7
     bc4:	8f 92       	push	r8
     bc6:	9f 92       	push	r9
     bc8:	af 92       	push	r10
     bca:	bf 92       	push	r11
     bcc:	cf 92       	push	r12
     bce:	df 92       	push	r13
     bd0:	ef 92       	push	r14
     bd2:	ff 92       	push	r15
     bd4:	0f 93       	push	r16
     bd6:	1f 93       	push	r17
     bd8:	cf 93       	push	r28
     bda:	df 93       	push	r29
     bdc:	cd b7       	in	r28, 0x3d	; 61
     bde:	de b7       	in	r29, 0x3e	; 62
     be0:	2d 97       	sbiw	r28, 0x0d	; 13
     be2:	0f b6       	in	r0, 0x3f	; 63
     be4:	f8 94       	cli
     be6:	de bf       	out	0x3e, r29	; 62
     be8:	0f be       	out	0x3f, r0	; 63
     bea:	cd bf       	out	0x3d, r28	; 61
     bec:	dc 01       	movw	r26, r24
     bee:	18 96       	adiw	r26, 0x08	; 8
     bf0:	ed 91       	ld	r30, X+
     bf2:	fc 91       	ld	r31, X
     bf4:	19 97       	sbiw	r26, 0x09	; 9
     bf6:	6e 17       	cp	r22, r30
     bf8:	7f 07       	cpc	r23, r31
     bfa:	0c f0       	brlt	.+2      	; 0xbfe <_ZN12Adafruit_GFX8drawCharEiihjjh+0x46>
     bfc:	9b c0       	rjmp	.+310    	; 0xd34 <_ZN12Adafruit_GFX8drawCharEiihjjh+0x17c>
     bfe:	1a 96       	adiw	r26, 0x0a	; 10
     c00:	ed 91       	ld	r30, X+
     c02:	fc 91       	ld	r31, X
     c04:	1b 97       	sbiw	r26, 0x0b	; 11
     c06:	4e 17       	cp	r20, r30
     c08:	5f 07       	cpc	r21, r31
     c0a:	0c f0       	brlt	.+2      	; 0xc0e <_ZN12Adafruit_GFX8drawCharEiihjjh+0x56>
     c0c:	93 c0       	rjmp	.+294    	; 0xd34 <_ZN12Adafruit_GFX8drawCharEiihjjh+0x17c>
     c0e:	8c 2c       	mov	r8, r12
     c10:	91 2c       	mov	r9, r1
     c12:	fb 01       	movw	r30, r22
     c14:	b6 e0       	ldi	r27, 0x06	; 6
     c16:	cb 9e       	mul	r12, r27
     c18:	e0 0d       	add	r30, r0
     c1a:	f1 1d       	adc	r31, r1
     c1c:	11 24       	eor	r1, r1
     c1e:	1e 16       	cp	r1, r30
     c20:	1f 06       	cpc	r1, r31
     c22:	0c f0       	brlt	.+2      	; 0xc26 <_ZN12Adafruit_GFX8drawCharEiihjjh+0x6e>
     c24:	87 c0       	rjmp	.+270    	; 0xd34 <_ZN12Adafruit_GFX8drawCharEiihjjh+0x17c>
     c26:	f4 01       	movw	r30, r8
     c28:	33 e0       	ldi	r19, 0x03	; 3
     c2a:	ee 0f       	add	r30, r30
     c2c:	ff 1f       	adc	r31, r31
     c2e:	3a 95       	dec	r19
     c30:	e1 f7       	brne	.-8      	; 0xc2a <_ZN12Adafruit_GFX8drawCharEiihjjh+0x72>
     c32:	e4 0f       	add	r30, r20
     c34:	f5 1f       	adc	r31, r21
     c36:	1e 16       	cp	r1, r30
     c38:	1f 06       	cpc	r1, r31
     c3a:	0c f0       	brlt	.+2      	; 0xc3e <_ZN12Adafruit_GFX8drawCharEiihjjh+0x86>
     c3c:	7b c0       	rjmp	.+246    	; 0xd34 <_ZN12Adafruit_GFX8drawCharEiihjjh+0x17c>
     c3e:	cf 82       	std	Y+7, r12	; 0x07
     c40:	fe 82       	std	Y+6, r15	; 0x06
     c42:	ed 82       	std	Y+5, r14	; 0x05
     c44:	1c 83       	std	Y+4, r17	; 0x04
     c46:	0b 83       	std	Y+3, r16	; 0x03
     c48:	1a 01       	movw	r2, r20
     c4a:	5c 01       	movw	r10, r24
     c4c:	45 e0       	ldi	r20, 0x05	; 5
     c4e:	24 9f       	mul	r18, r20
     c50:	90 01       	movw	r18, r0
     c52:	11 24       	eor	r1, r1
     c54:	7d 87       	std	Y+13, r23	; 0x0d
     c56:	6c 87       	std	Y+12, r22	; 0x0c
     c58:	3b 01       	movw	r6, r22
     c5a:	1a 82       	std	Y+2, r1	; 0x02
     c5c:	c9 01       	movw	r24, r18
     c5e:	86 1b       	sub	r24, r22
     c60:	97 0b       	sbc	r25, r23
     c62:	99 87       	std	Y+9, r25	; 0x09
     c64:	88 87       	std	Y+8, r24	; 0x08
     c66:	d1 01       	movw	r26, r2
     c68:	18 96       	adiw	r26, 0x08	; 8
     c6a:	bb 87       	std	Y+11, r27	; 0x0b
     c6c:	aa 87       	std	Y+10, r26	; 0x0a
     c6e:	ba 81       	ldd	r27, Y+2	; 0x02
     c70:	b5 30       	cpi	r27, 0x05	; 5
     c72:	49 f0       	breq	.+18     	; 0xc86 <_ZN12Adafruit_GFX8drawCharEiihjjh+0xce>
     c74:	e8 85       	ldd	r30, Y+8	; 0x08
     c76:	f9 85       	ldd	r31, Y+9	; 0x09
     c78:	e6 0d       	add	r30, r6
     c7a:	f7 1d       	adc	r31, r7
     c7c:	e8 59       	subi	r30, 0x98	; 152
     c7e:	ff 4f       	sbci	r31, 0xFF	; 255
     c80:	24 91       	lpm	r18, Z
     c82:	29 83       	std	Y+1, r18	; 0x01
     c84:	01 c0       	rjmp	.+2      	; 0xc88 <_ZN12Adafruit_GFX8drawCharEiihjjh+0xd0>
     c86:	19 82       	std	Y+1, r1	; 0x01
     c88:	21 01       	movw	r4, r2
     c8a:	61 01       	movw	r12, r2
     c8c:	39 81       	ldd	r19, Y+1	; 0x01
     c8e:	30 ff       	sbrs	r19, 0
     c90:	12 c0       	rjmp	.+36     	; 0xcb6 <_ZN12Adafruit_GFX8drawCharEiihjjh+0xfe>
     c92:	d5 01       	movw	r26, r10
     c94:	ed 91       	ld	r30, X+
     c96:	fc 91       	ld	r31, X
     c98:	bf 81       	ldd	r27, Y+7	; 0x07
     c9a:	b1 30       	cpi	r27, 0x01	; 1
     c9c:	31 f4       	brne	.+12     	; 0xcaa <_ZN12Adafruit_GFX8drawCharEiihjjh+0xf2>
     c9e:	04 80       	ldd	r0, Z+4	; 0x04
     ca0:	f5 81       	ldd	r31, Z+5	; 0x05
     ca2:	e0 2d       	mov	r30, r0
     ca4:	2b 81       	ldd	r18, Y+3	; 0x03
     ca6:	3c 81       	ldd	r19, Y+4	; 0x04
     ca8:	17 c0       	rjmp	.+46     	; 0xcd8 <_ZN12Adafruit_GFX8drawCharEiihjjh+0x120>
     caa:	06 84       	ldd	r0, Z+14	; 0x0e
     cac:	f7 85       	ldd	r31, Z+15	; 0x0f
     cae:	e0 2d       	mov	r30, r0
     cb0:	eb 80       	ldd	r14, Y+3	; 0x03
     cb2:	fc 80       	ldd	r15, Y+4	; 0x04
     cb4:	1b c0       	rjmp	.+54     	; 0xcec <_ZN12Adafruit_GFX8drawCharEiihjjh+0x134>
     cb6:	2b 81       	ldd	r18, Y+3	; 0x03
     cb8:	3c 81       	ldd	r19, Y+4	; 0x04
     cba:	4d 81       	ldd	r20, Y+5	; 0x05
     cbc:	5e 81       	ldd	r21, Y+6	; 0x06
     cbe:	24 17       	cp	r18, r20
     cc0:	35 07       	cpc	r19, r21
     cc2:	d9 f0       	breq	.+54     	; 0xcfa <_ZN12Adafruit_GFX8drawCharEiihjjh+0x142>
     cc4:	d5 01       	movw	r26, r10
     cc6:	ed 91       	ld	r30, X+
     cc8:	fc 91       	ld	r31, X
     cca:	bf 81       	ldd	r27, Y+7	; 0x07
     ccc:	b1 30       	cpi	r27, 0x01	; 1
     cce:	49 f4       	brne	.+18     	; 0xce2 <_ZN12Adafruit_GFX8drawCharEiihjjh+0x12a>
     cd0:	04 80       	ldd	r0, Z+4	; 0x04
     cd2:	f5 81       	ldd	r31, Z+5	; 0x05
     cd4:	e0 2d       	mov	r30, r0
     cd6:	9a 01       	movw	r18, r20
     cd8:	a2 01       	movw	r20, r4
     cda:	b3 01       	movw	r22, r6
     cdc:	c5 01       	movw	r24, r10
     cde:	09 95       	icall
     ce0:	0c c0       	rjmp	.+24     	; 0xcfa <_ZN12Adafruit_GFX8drawCharEiihjjh+0x142>
     ce2:	06 84       	ldd	r0, Z+14	; 0x0e
     ce4:	f7 85       	ldd	r31, Z+15	; 0x0f
     ce6:	e0 2d       	mov	r30, r0
     ce8:	ed 80       	ldd	r14, Y+5	; 0x05
     cea:	fe 80       	ldd	r15, Y+6	; 0x06
     cec:	84 01       	movw	r16, r8
     cee:	94 01       	movw	r18, r8
     cf0:	a6 01       	movw	r20, r12
     cf2:	6c 85       	ldd	r22, Y+12	; 0x0c
     cf4:	7d 85       	ldd	r23, Y+13	; 0x0d
     cf6:	c5 01       	movw	r24, r10
     cf8:	09 95       	icall
     cfa:	29 81       	ldd	r18, Y+1	; 0x01
     cfc:	26 95       	lsr	r18
     cfe:	29 83       	std	Y+1, r18	; 0x01
     d00:	3f ef       	ldi	r19, 0xFF	; 255
     d02:	43 1a       	sub	r4, r19
     d04:	53 0a       	sbc	r5, r19
     d06:	c8 0c       	add	r12, r8
     d08:	d9 1c       	adc	r13, r9
     d0a:	4a 85       	ldd	r20, Y+10	; 0x0a
     d0c:	5b 85       	ldd	r21, Y+11	; 0x0b
     d0e:	44 16       	cp	r4, r20
     d10:	55 06       	cpc	r5, r21
     d12:	09 f0       	breq	.+2      	; 0xd16 <_ZN12Adafruit_GFX8drawCharEiihjjh+0x15e>
     d14:	bb cf       	rjmp	.-138    	; 0xc8c <_ZN12Adafruit_GFX8drawCharEiihjjh+0xd4>
     d16:	5a 81       	ldd	r21, Y+2	; 0x02
     d18:	5f 5f       	subi	r21, 0xFF	; 255
     d1a:	5a 83       	std	Y+2, r21	; 0x02
     d1c:	8f ef       	ldi	r24, 0xFF	; 255
     d1e:	68 1a       	sub	r6, r24
     d20:	78 0a       	sbc	r7, r24
     d22:	ac 85       	ldd	r26, Y+12	; 0x0c
     d24:	bd 85       	ldd	r27, Y+13	; 0x0d
     d26:	a8 0d       	add	r26, r8
     d28:	b9 1d       	adc	r27, r9
     d2a:	bd 87       	std	Y+13, r27	; 0x0d
     d2c:	ac 87       	std	Y+12, r26	; 0x0c
     d2e:	56 30       	cpi	r21, 0x06	; 6
     d30:	09 f0       	breq	.+2      	; 0xd34 <_ZN12Adafruit_GFX8drawCharEiihjjh+0x17c>
     d32:	9d cf       	rjmp	.-198    	; 0xc6e <_ZN12Adafruit_GFX8drawCharEiihjjh+0xb6>
     d34:	2d 96       	adiw	r28, 0x0d	; 13
     d36:	0f b6       	in	r0, 0x3f	; 63
     d38:	f8 94       	cli
     d3a:	de bf       	out	0x3e, r29	; 62
     d3c:	0f be       	out	0x3f, r0	; 63
     d3e:	cd bf       	out	0x3d, r28	; 61
     d40:	df 91       	pop	r29
     d42:	cf 91       	pop	r28
     d44:	1f 91       	pop	r17
     d46:	0f 91       	pop	r16
     d48:	ff 90       	pop	r15
     d4a:	ef 90       	pop	r14
     d4c:	df 90       	pop	r13
     d4e:	cf 90       	pop	r12
     d50:	bf 90       	pop	r11
     d52:	af 90       	pop	r10
     d54:	9f 90       	pop	r9
     d56:	8f 90       	pop	r8
     d58:	7f 90       	pop	r7
     d5a:	6f 90       	pop	r6
     d5c:	5f 90       	pop	r5
     d5e:	4f 90       	pop	r4
     d60:	3f 90       	pop	r3
     d62:	2f 90       	pop	r2
     d64:	08 95       	ret

00000d66 <_ZN12Adafruit_GFX5writeEh>:
     d66:	cf 92       	push	r12
     d68:	ef 92       	push	r14
     d6a:	ff 92       	push	r15
     d6c:	0f 93       	push	r16
     d6e:	1f 93       	push	r17
     d70:	cf 93       	push	r28
     d72:	df 93       	push	r29
     d74:	ec 01       	movw	r28, r24
     d76:	6a 30       	cpi	r22, 0x0A	; 10
     d78:	59 f4       	brne	.+22     	; 0xd90 <_ZN12Adafruit_GFX5writeEh+0x2a>
     d7a:	2c 89       	ldd	r18, Y+20	; 0x14
     d7c:	8e 85       	ldd	r24, Y+14	; 0x0e
     d7e:	9f 85       	ldd	r25, Y+15	; 0x0f
     d80:	38 e0       	ldi	r19, 0x08	; 8
     d82:	23 9f       	mul	r18, r19
     d84:	80 0d       	add	r24, r0
     d86:	91 1d       	adc	r25, r1
     d88:	11 24       	eor	r1, r1
     d8a:	9f 87       	std	Y+15, r25	; 0x0f
     d8c:	8e 87       	std	Y+14, r24	; 0x0e
     d8e:	35 c0       	rjmp	.+106    	; 0xdfa <_ZN12Adafruit_GFX5writeEh+0x94>
     d90:	6d 30       	cpi	r22, 0x0D	; 13
     d92:	a9 f1       	breq	.+106    	; 0xdfe <_ZN12Adafruit_GFX5writeEh+0x98>
     d94:	26 2f       	mov	r18, r22
     d96:	ea 88       	ldd	r14, Y+18	; 0x12
     d98:	fb 88       	ldd	r15, Y+19	; 0x13
     d9a:	08 89       	ldd	r16, Y+16	; 0x10
     d9c:	19 89       	ldd	r17, Y+17	; 0x11
     d9e:	4e 85       	ldd	r20, Y+14	; 0x0e
     da0:	5f 85       	ldd	r21, Y+15	; 0x0f
     da2:	6c 85       	ldd	r22, Y+12	; 0x0c
     da4:	7d 85       	ldd	r23, Y+13	; 0x0d
     da6:	cc 88       	ldd	r12, Y+20	; 0x14
     da8:	0e 94 dc 05 	call	0xbb8	; 0xbb8 <_ZN12Adafruit_GFX8drawCharEiihjjh>
     dac:	4c 89       	ldd	r20, Y+20	; 0x14
     dae:	24 2f       	mov	r18, r20
     db0:	30 e0       	ldi	r19, 0x00	; 0
     db2:	8c 85       	ldd	r24, Y+12	; 0x0c
     db4:	9d 85       	ldd	r25, Y+13	; 0x0d
     db6:	56 e0       	ldi	r21, 0x06	; 6
     db8:	45 9f       	mul	r20, r21
     dba:	80 0d       	add	r24, r0
     dbc:	91 1d       	adc	r25, r1
     dbe:	11 24       	eor	r1, r1
     dc0:	9d 87       	std	Y+13, r25	; 0x0d
     dc2:	8c 87       	std	Y+12, r24	; 0x0c
     dc4:	4e 89       	ldd	r20, Y+22	; 0x16
     dc6:	44 23       	and	r20, r20
     dc8:	d1 f0       	breq	.+52     	; 0xdfe <_ZN12Adafruit_GFX5writeEh+0x98>
     dca:	4a ef       	ldi	r20, 0xFA	; 250
     dcc:	42 03       	mulsu	r20, r18
     dce:	b0 01       	movw	r22, r0
     dd0:	43 9f       	mul	r20, r19
     dd2:	70 0d       	add	r23, r0
     dd4:	11 24       	eor	r1, r1
     dd6:	48 85       	ldd	r20, Y+8	; 0x08
     dd8:	59 85       	ldd	r21, Y+9	; 0x09
     dda:	46 0f       	add	r20, r22
     ddc:	57 1f       	adc	r21, r23
     dde:	48 17       	cp	r20, r24
     de0:	59 07       	cpc	r21, r25
     de2:	6c f4       	brge	.+26     	; 0xdfe <_ZN12Adafruit_GFX5writeEh+0x98>
     de4:	83 e0       	ldi	r24, 0x03	; 3
     de6:	22 0f       	add	r18, r18
     de8:	33 1f       	adc	r19, r19
     dea:	8a 95       	dec	r24
     dec:	e1 f7       	brne	.-8      	; 0xde6 <_ZN12Adafruit_GFX5writeEh+0x80>
     dee:	8e 85       	ldd	r24, Y+14	; 0x0e
     df0:	9f 85       	ldd	r25, Y+15	; 0x0f
     df2:	28 0f       	add	r18, r24
     df4:	39 1f       	adc	r19, r25
     df6:	3f 87       	std	Y+15, r19	; 0x0f
     df8:	2e 87       	std	Y+14, r18	; 0x0e
     dfa:	1d 86       	std	Y+13, r1	; 0x0d
     dfc:	1c 86       	std	Y+12, r1	; 0x0c
     dfe:	81 e0       	ldi	r24, 0x01	; 1
     e00:	90 e0       	ldi	r25, 0x00	; 0
     e02:	df 91       	pop	r29
     e04:	cf 91       	pop	r28
     e06:	1f 91       	pop	r17
     e08:	0f 91       	pop	r16
     e0a:	ff 90       	pop	r15
     e0c:	ef 90       	pop	r14
     e0e:	cf 90       	pop	r12
     e10:	08 95       	ret

00000e12 <_ZN12Adafruit_GFX9setCursorEii>:
     e12:	fc 01       	movw	r30, r24
     e14:	75 87       	std	Z+13, r23	; 0x0d
     e16:	64 87       	std	Z+12, r22	; 0x0c
     e18:	57 87       	std	Z+15, r21	; 0x0f
     e1a:	46 87       	std	Z+14, r20	; 0x0e
     e1c:	08 95       	ret

00000e1e <_ZN12Adafruit_GFX11setTextSizeEh>:
     e1e:	61 11       	cpse	r22, r1
     e20:	01 c0       	rjmp	.+2      	; 0xe24 <_ZN12Adafruit_GFX11setTextSizeEh+0x6>
     e22:	61 e0       	ldi	r22, 0x01	; 1
     e24:	fc 01       	movw	r30, r24
     e26:	64 8b       	std	Z+20, r22	; 0x14
     e28:	08 95       	ret

00000e2a <_ZN12Adafruit_GFX12setTextColorEj>:
     e2a:	fc 01       	movw	r30, r24
     e2c:	73 8b       	std	Z+19, r23	; 0x13
     e2e:	62 8b       	std	Z+18, r22	; 0x12
     e30:	71 8b       	std	Z+17, r23	; 0x11
     e32:	60 8b       	std	Z+16, r22	; 0x10
     e34:	08 95       	ret

00000e36 <_ZN12Adafruit_GFX12setTextColorEjj>:
     e36:	fc 01       	movw	r30, r24
     e38:	71 8b       	std	Z+17, r23	; 0x11
     e3a:	60 8b       	std	Z+16, r22	; 0x10
     e3c:	53 8b       	std	Z+19, r21	; 0x13
     e3e:	42 8b       	std	Z+18, r20	; 0x12
     e40:	08 95       	ret

00000e42 <_ZN12Adafruit_GFX11setTextWrapEh>:
     e42:	fc 01       	movw	r30, r24
     e44:	66 8b       	std	Z+22, r22	; 0x16
     e46:	08 95       	ret

00000e48 <_ZNK12Adafruit_GFX11getRotationEv>:
     e48:	fc 01       	movw	r30, r24
     e4a:	85 89       	ldd	r24, Z+21	; 0x15
     e4c:	08 95       	ret

00000e4e <_ZNK12Adafruit_GFX5widthEv>:
     e4e:	fc 01       	movw	r30, r24
     e50:	80 85       	ldd	r24, Z+8	; 0x08
     e52:	91 85       	ldd	r25, Z+9	; 0x09
     e54:	08 95       	ret

00000e56 <_ZNK12Adafruit_GFX6heightEv>:
     e56:	fc 01       	movw	r30, r24
     e58:	82 85       	ldd	r24, Z+10	; 0x0a
     e5a:	93 85       	ldd	r25, Z+11	; 0x0b
     e5c:	08 95       	ret

00000e5e <_ZN16Adafruit_SSD130613drawFastHLineEiiij>:
     e5e:	0f 93       	push	r16
     e60:	1f 93       	push	r17
     e62:	cf 93       	push	r28
     e64:	df 93       	push	r29
     e66:	dc 01       	movw	r26, r24
     e68:	fb 01       	movw	r30, r22
     e6a:	55 96       	adiw	r26, 0x15	; 21
     e6c:	8c 91       	ld	r24, X
     e6e:	55 97       	sbiw	r26, 0x15	; 21
     e70:	82 30       	cpi	r24, 0x02	; 2
     e72:	89 f0       	breq	.+34     	; 0xe96 <_ZN16Adafruit_SSD130613drawFastHLineEiiij+0x38>
     e74:	83 30       	cpi	r24, 0x03	; 3
     e76:	21 f1       	breq	.+72     	; 0xec0 <_ZN16Adafruit_SSD130613drawFastHLineEiiij+0x62>
     e78:	81 30       	cpi	r24, 0x01	; 1
     e7a:	09 f0       	breq	.+2      	; 0xe7e <_ZN16Adafruit_SSD130613drawFastHLineEiiij+0x20>
     e7c:	e7 c0       	rjmp	.+462    	; 0x104c <_ZN16Adafruit_SSD130613drawFastHLineEiiij+0x1ee>
     e7e:	14 96       	adiw	r26, 0x04	; 4
     e80:	8d 91       	ld	r24, X+
     e82:	9c 91       	ld	r25, X
     e84:	15 97       	sbiw	r26, 0x05	; 5
     e86:	bc 01       	movw	r22, r24
     e88:	64 1b       	sub	r22, r20
     e8a:	75 0b       	sbc	r23, r21
     e8c:	ab 01       	movw	r20, r22
     e8e:	41 50       	subi	r20, 0x01	; 1
     e90:	51 09       	sbc	r21, r1
     e92:	bf 01       	movw	r22, r30
     e94:	1d c0       	rjmp	.+58     	; 0xed0 <_ZN16Adafruit_SSD130613drawFastHLineEiiij+0x72>
     e96:	14 96       	adiw	r26, 0x04	; 4
     e98:	6d 91       	ld	r22, X+
     e9a:	7c 91       	ld	r23, X
     e9c:	15 97       	sbiw	r26, 0x05	; 5
     e9e:	cb 01       	movw	r24, r22
     ea0:	8e 1b       	sub	r24, r30
     ea2:	9f 0b       	sbc	r25, r31
     ea4:	fc 01       	movw	r30, r24
     ea6:	16 96       	adiw	r26, 0x06	; 6
     ea8:	8d 91       	ld	r24, X+
     eaa:	9c 91       	ld	r25, X
     eac:	17 97       	sbiw	r26, 0x07	; 7
     eae:	bc 01       	movw	r22, r24
     eb0:	64 1b       	sub	r22, r20
     eb2:	75 0b       	sbc	r23, r21
     eb4:	ab 01       	movw	r20, r22
     eb6:	41 50       	subi	r20, 0x01	; 1
     eb8:	51 09       	sbc	r21, r1
     eba:	e2 1b       	sub	r30, r18
     ebc:	f3 0b       	sbc	r31, r19
     ebe:	c6 c0       	rjmp	.+396    	; 0x104c <_ZN16Adafruit_SSD130613drawFastHLineEiiij+0x1ee>
     ec0:	16 96       	adiw	r26, 0x06	; 6
     ec2:	6d 91       	ld	r22, X+
     ec4:	7c 91       	ld	r23, X
     ec6:	17 97       	sbiw	r26, 0x07	; 7
     ec8:	6e 1b       	sub	r22, r30
     eca:	7f 0b       	sbc	r23, r31
     ecc:	62 1b       	sub	r22, r18
     ece:	73 0b       	sbc	r23, r19
     ed0:	57 fd       	sbrc	r21, 7
     ed2:	1b c1       	rjmp	.+566    	; 0x110a <_ZN16Adafruit_SSD130613drawFastHLineEiiij+0x2ac>
     ed4:	14 96       	adiw	r26, 0x04	; 4
     ed6:	8d 91       	ld	r24, X+
     ed8:	9c 91       	ld	r25, X
     eda:	15 97       	sbiw	r26, 0x05	; 5
     edc:	48 17       	cp	r20, r24
     ede:	59 07       	cpc	r21, r25
     ee0:	0c f0       	brlt	.+2      	; 0xee4 <_ZN16Adafruit_SSD130613drawFastHLineEiiij+0x86>
     ee2:	13 c1       	rjmp	.+550    	; 0x110a <_ZN16Adafruit_SSD130613drawFastHLineEiiij+0x2ac>
     ee4:	77 ff       	sbrs	r23, 7
     ee6:	04 c0       	rjmp	.+8      	; 0xef0 <_ZN16Adafruit_SSD130613drawFastHLineEiiij+0x92>
     ee8:	26 0f       	add	r18, r22
     eea:	37 1f       	adc	r19, r23
     eec:	60 e0       	ldi	r22, 0x00	; 0
     eee:	70 e0       	ldi	r23, 0x00	; 0
     ef0:	16 96       	adiw	r26, 0x06	; 6
     ef2:	8d 91       	ld	r24, X+
     ef4:	9c 91       	ld	r25, X
     ef6:	17 97       	sbiw	r26, 0x07	; 7
     ef8:	fb 01       	movw	r30, r22
     efa:	e2 0f       	add	r30, r18
     efc:	f3 1f       	adc	r31, r19
     efe:	8e 17       	cp	r24, r30
     f00:	9f 07       	cpc	r25, r31
     f02:	1c f4       	brge	.+6      	; 0xf0a <_ZN16Adafruit_SSD130613drawFastHLineEiiij+0xac>
     f04:	9c 01       	movw	r18, r24
     f06:	26 1b       	sub	r18, r22
     f08:	37 0b       	sbc	r19, r23
     f0a:	12 16       	cp	r1, r18
     f0c:	13 06       	cpc	r1, r19
     f0e:	0c f0       	brlt	.+2      	; 0xf12 <_ZN16Adafruit_SSD130613drawFastHLineEiiij+0xb4>
     f10:	fc c0       	rjmp	.+504    	; 0x110a <_ZN16Adafruit_SSD130613drawFastHLineEiiij+0x2ac>
     f12:	a2 2f       	mov	r26, r18
     f14:	86 2f       	mov	r24, r22
     f16:	86 95       	lsr	r24
     f18:	86 95       	lsr	r24
     f1a:	86 95       	lsr	r24
     f1c:	90 e8       	ldi	r25, 0x80	; 128
     f1e:	89 9f       	mul	r24, r25
     f20:	40 0d       	add	r20, r0
     f22:	51 1d       	adc	r21, r1
     f24:	11 24       	eor	r1, r1
     f26:	fa 01       	movw	r30, r20
     f28:	e8 5e       	subi	r30, 0xE8	; 232
     f2a:	fe 4f       	sbci	r31, 0xFE	; 254
     f2c:	67 70       	andi	r22, 0x07	; 7
     f2e:	a9 f1       	breq	.+106    	; 0xf9a <_ZN16Adafruit_SSD130613drawFastHLineEiiij+0x13c>
     f30:	98 e0       	ldi	r25, 0x08	; 8
     f32:	96 1b       	sub	r25, r22
     f34:	49 2f       	mov	r20, r25
     f36:	50 e0       	ldi	r21, 0x00	; 0
     f38:	ea 01       	movw	r28, r20
     f3a:	c0 5f       	subi	r28, 0xF0	; 240
     f3c:	de 4f       	sbci	r29, 0xFE	; 254
     f3e:	88 81       	ld	r24, Y
     f40:	29 17       	cp	r18, r25
     f42:	90 f4       	brcc	.+36     	; 0xf68 <_ZN16Adafruit_SSD130613drawFastHLineEiiij+0x10a>
     f44:	42 1b       	sub	r20, r18
     f46:	51 09       	sbc	r21, r1
     f48:	2f ef       	ldi	r18, 0xFF	; 255
     f4a:	30 e0       	ldi	r19, 0x00	; 0
     f4c:	02 c0       	rjmp	.+4      	; 0xf52 <_ZN16Adafruit_SSD130613drawFastHLineEiiij+0xf4>
     f4e:	35 95       	asr	r19
     f50:	27 95       	ror	r18
     f52:	4a 95       	dec	r20
     f54:	e2 f7       	brpl	.-8      	; 0xf4e <_ZN16Adafruit_SSD130613drawFastHLineEiiij+0xf0>
     f56:	82 23       	and	r24, r18
     f58:	01 30       	cpi	r16, 0x01	; 1
     f5a:	11 05       	cpc	r17, r1
     f5c:	41 f0       	breq	.+16     	; 0xf6e <_ZN16Adafruit_SSD130613drawFastHLineEiiij+0x110>
     f5e:	68 f0       	brcs	.+26     	; 0xf7a <_ZN16Adafruit_SSD130613drawFastHLineEiiij+0x11c>
     f60:	02 30       	cpi	r16, 0x02	; 2
     f62:	11 05       	cpc	r17, r1
     f64:	89 f0       	breq	.+34     	; 0xf88 <_ZN16Adafruit_SSD130613drawFastHLineEiiij+0x12a>
     f66:	d1 c0       	rjmp	.+418    	; 0x110a <_ZN16Adafruit_SSD130613drawFastHLineEiiij+0x2ac>
     f68:	01 30       	cpi	r16, 0x01	; 1
     f6a:	11 05       	cpc	r17, r1
     f6c:	19 f4       	brne	.+6      	; 0xf74 <_ZN16Adafruit_SSD130613drawFastHLineEiiij+0x116>
     f6e:	20 81       	ld	r18, Z
     f70:	82 2b       	or	r24, r18
     f72:	0c c0       	rjmp	.+24     	; 0xf8c <_ZN16Adafruit_SSD130613drawFastHLineEiiij+0x12e>
     f74:	01 30       	cpi	r16, 0x01	; 1
     f76:	11 05       	cpc	r17, r1
     f78:	20 f4       	brcc	.+8      	; 0xf82 <_ZN16Adafruit_SSD130613drawFastHLineEiiij+0x124>
     f7a:	80 95       	com	r24
     f7c:	20 81       	ld	r18, Z
     f7e:	82 23       	and	r24, r18
     f80:	05 c0       	rjmp	.+10     	; 0xf8c <_ZN16Adafruit_SSD130613drawFastHLineEiiij+0x12e>
     f82:	02 30       	cpi	r16, 0x02	; 2
     f84:	11 05       	cpc	r17, r1
     f86:	31 f4       	brne	.+12     	; 0xf94 <_ZN16Adafruit_SSD130613drawFastHLineEiiij+0x136>
     f88:	20 81       	ld	r18, Z
     f8a:	82 27       	eor	r24, r18
     f8c:	80 83       	st	Z, r24
     f8e:	a9 17       	cp	r26, r25
     f90:	08 f4       	brcc	.+2      	; 0xf94 <_ZN16Adafruit_SSD130613drawFastHLineEiiij+0x136>
     f92:	bb c0       	rjmp	.+374    	; 0x110a <_ZN16Adafruit_SSD130613drawFastHLineEiiij+0x2ac>
     f94:	a9 1b       	sub	r26, r25
     f96:	e0 58       	subi	r30, 0x80	; 128
     f98:	ff 4f       	sbci	r31, 0xFF	; 255
     f9a:	a8 30       	cpi	r26, 0x08	; 8
     f9c:	48 f1       	brcs	.+82     	; 0xff0 <_ZN16Adafruit_SSD130613drawFastHLineEiiij+0x192>
     f9e:	02 30       	cpi	r16, 0x02	; 2
     fa0:	11 05       	cpc	r17, r1
     fa2:	59 f4       	brne	.+22     	; 0xfba <_ZN16Adafruit_SSD130613drawFastHLineEiiij+0x15c>
     fa4:	ef 01       	movw	r28, r30
     fa6:	8a 2f       	mov	r24, r26
     fa8:	98 81       	ld	r25, Y
     faa:	90 95       	com	r25
     fac:	98 83       	st	Y, r25
     fae:	c0 58       	subi	r28, 0x80	; 128
     fb0:	df 4f       	sbci	r29, 0xFF	; 255
     fb2:	88 50       	subi	r24, 0x08	; 8
     fb4:	88 30       	cpi	r24, 0x08	; 8
     fb6:	c0 f7       	brcc	.-16     	; 0xfa8 <_ZN16Adafruit_SSD130613drawFastHLineEiiij+0x14a>
     fb8:	33 c0       	rjmp	.+102    	; 0x1020 <_ZN16Adafruit_SSD130613drawFastHLineEiiij+0x1c2>
     fba:	81 e0       	ldi	r24, 0x01	; 1
     fbc:	01 30       	cpi	r16, 0x01	; 1
     fbe:	11 05       	cpc	r17, r1
     fc0:	09 f0       	breq	.+2      	; 0xfc4 <_ZN16Adafruit_SSD130613drawFastHLineEiiij+0x166>
     fc2:	80 e0       	ldi	r24, 0x00	; 0
     fc4:	81 95       	neg	r24
     fc6:	ef 01       	movw	r28, r30
     fc8:	9a 2f       	mov	r25, r26
     fca:	88 83       	st	Y, r24
     fcc:	c0 58       	subi	r28, 0x80	; 128
     fce:	df 4f       	sbci	r29, 0xFF	; 255
     fd0:	98 50       	subi	r25, 0x08	; 8
     fd2:	98 30       	cpi	r25, 0x08	; 8
     fd4:	d0 f7       	brcc	.-12     	; 0xfca <_ZN16Adafruit_SSD130613drawFastHLineEiiij+0x16c>
     fd6:	88 ef       	ldi	r24, 0xF8	; 248
     fd8:	8a 0f       	add	r24, r26
     fda:	86 95       	lsr	r24
     fdc:	86 95       	lsr	r24
     fde:	86 95       	lsr	r24
     fe0:	60 e8       	ldi	r22, 0x80	; 128
     fe2:	86 9f       	mul	r24, r22
     fe4:	e0 0d       	add	r30, r0
     fe6:	f1 1d       	adc	r31, r1
     fe8:	11 24       	eor	r1, r1
     fea:	e0 58       	subi	r30, 0x80	; 128
     fec:	ff 4f       	sbci	r31, 0xFF	; 255
     fee:	a7 70       	andi	r26, 0x07	; 7
     ff0:	aa 23       	and	r26, r26
     ff2:	09 f4       	brne	.+2      	; 0xff6 <_ZN16Adafruit_SSD130613drawFastHLineEiiij+0x198>
     ff4:	8a c0       	rjmp	.+276    	; 0x110a <_ZN16Adafruit_SSD130613drawFastHLineEiiij+0x2ac>
     ff6:	b0 e0       	ldi	r27, 0x00	; 0
     ff8:	a8 5f       	subi	r26, 0xF8	; 248
     ffa:	be 4f       	sbci	r27, 0xFE	; 254
     ffc:	8c 91       	ld	r24, X
     ffe:	01 30       	cpi	r16, 0x01	; 1
    1000:	11 05       	cpc	r17, r1
    1002:	31 f0       	breq	.+12     	; 0x1010 <_ZN16Adafruit_SSD130613drawFastHLineEiiij+0x1b2>
    1004:	40 f0       	brcs	.+16     	; 0x1016 <_ZN16Adafruit_SSD130613drawFastHLineEiiij+0x1b8>
    1006:	02 30       	cpi	r16, 0x02	; 2
    1008:	11 05       	cpc	r17, r1
    100a:	09 f0       	breq	.+2      	; 0x100e <_ZN16Adafruit_SSD130613drawFastHLineEiiij+0x1b0>
    100c:	7e c0       	rjmp	.+252    	; 0x110a <_ZN16Adafruit_SSD130613drawFastHLineEiiij+0x2ac>
    100e:	1b c0       	rjmp	.+54     	; 0x1046 <_ZN16Adafruit_SSD130613drawFastHLineEiiij+0x1e8>
    1010:	90 81       	ld	r25, Z
    1012:	89 2b       	or	r24, r25
    1014:	03 c0       	rjmp	.+6      	; 0x101c <_ZN16Adafruit_SSD130613drawFastHLineEiiij+0x1be>
    1016:	80 95       	com	r24
    1018:	90 81       	ld	r25, Z
    101a:	89 23       	and	r24, r25
    101c:	80 83       	st	Z, r24
    101e:	75 c0       	rjmp	.+234    	; 0x110a <_ZN16Adafruit_SSD130613drawFastHLineEiiij+0x2ac>
    1020:	88 ef       	ldi	r24, 0xF8	; 248
    1022:	8a 0f       	add	r24, r26
    1024:	86 95       	lsr	r24
    1026:	86 95       	lsr	r24
    1028:	86 95       	lsr	r24
    102a:	70 e8       	ldi	r23, 0x80	; 128
    102c:	87 9f       	mul	r24, r23
    102e:	e0 0d       	add	r30, r0
    1030:	f1 1d       	adc	r31, r1
    1032:	11 24       	eor	r1, r1
    1034:	e0 58       	subi	r30, 0x80	; 128
    1036:	ff 4f       	sbci	r31, 0xFF	; 255
    1038:	a7 70       	andi	r26, 0x07	; 7
    103a:	09 f4       	brne	.+2      	; 0x103e <_ZN16Adafruit_SSD130613drawFastHLineEiiij+0x1e0>
    103c:	66 c0       	rjmp	.+204    	; 0x110a <_ZN16Adafruit_SSD130613drawFastHLineEiiij+0x2ac>
    103e:	b0 e0       	ldi	r27, 0x00	; 0
    1040:	a8 5f       	subi	r26, 0xF8	; 248
    1042:	be 4f       	sbci	r27, 0xFE	; 254
    1044:	8c 91       	ld	r24, X
    1046:	90 81       	ld	r25, Z
    1048:	89 27       	eor	r24, r25
    104a:	e8 cf       	rjmp	.-48     	; 0x101c <_ZN16Adafruit_SSD130613drawFastHLineEiiij+0x1be>
    104c:	57 fd       	sbrc	r21, 7
    104e:	5d c0       	rjmp	.+186    	; 0x110a <_ZN16Adafruit_SSD130613drawFastHLineEiiij+0x2ac>
    1050:	16 96       	adiw	r26, 0x06	; 6
    1052:	8d 91       	ld	r24, X+
    1054:	9c 91       	ld	r25, X
    1056:	17 97       	sbiw	r26, 0x07	; 7
    1058:	48 17       	cp	r20, r24
    105a:	59 07       	cpc	r21, r25
    105c:	0c f0       	brlt	.+2      	; 0x1060 <_ZN16Adafruit_SSD130613drawFastHLineEiiij+0x202>
    105e:	55 c0       	rjmp	.+170    	; 0x110a <_ZN16Adafruit_SSD130613drawFastHLineEiiij+0x2ac>
    1060:	f7 ff       	sbrs	r31, 7
    1062:	04 c0       	rjmp	.+8      	; 0x106c <_ZN16Adafruit_SSD130613drawFastHLineEiiij+0x20e>
    1064:	2e 0f       	add	r18, r30
    1066:	3f 1f       	adc	r19, r31
    1068:	e0 e0       	ldi	r30, 0x00	; 0
    106a:	f0 e0       	ldi	r31, 0x00	; 0
    106c:	14 96       	adiw	r26, 0x04	; 4
    106e:	8d 91       	ld	r24, X+
    1070:	9c 91       	ld	r25, X
    1072:	15 97       	sbiw	r26, 0x05	; 5
    1074:	bf 01       	movw	r22, r30
    1076:	62 0f       	add	r22, r18
    1078:	73 1f       	adc	r23, r19
    107a:	86 17       	cp	r24, r22
    107c:	97 07       	cpc	r25, r23
    107e:	1c f4       	brge	.+6      	; 0x1086 <_ZN16Adafruit_SSD130613drawFastHLineEiiij+0x228>
    1080:	9c 01       	movw	r18, r24
    1082:	2e 1b       	sub	r18, r30
    1084:	3f 0b       	sbc	r19, r31
    1086:	12 16       	cp	r1, r18
    1088:	13 06       	cpc	r1, r19
    108a:	0c f0       	brlt	.+2      	; 0x108e <_ZN16Adafruit_SSD130613drawFastHLineEiiij+0x230>
    108c:	3e c0       	rjmp	.+124    	; 0x110a <_ZN16Adafruit_SSD130613drawFastHLineEiiij+0x2ac>
    108e:	ca 01       	movw	r24, r20
    1090:	57 fd       	sbrc	r21, 7
    1092:	07 96       	adiw	r24, 0x07	; 7
    1094:	63 e0       	ldi	r22, 0x03	; 3
    1096:	95 95       	asr	r25
    1098:	87 95       	ror	r24
    109a:	6a 95       	dec	r22
    109c:	e1 f7       	brne	.-8      	; 0x1096 <_ZN16Adafruit_SSD130613drawFastHLineEiiij+0x238>
    109e:	96 95       	lsr	r25
    10a0:	98 2f       	mov	r25, r24
    10a2:	88 27       	eor	r24, r24
    10a4:	97 95       	ror	r25
    10a6:	87 95       	ror	r24
    10a8:	e8 0f       	add	r30, r24
    10aa:	f9 1f       	adc	r31, r25
    10ac:	e8 5e       	subi	r30, 0xE8	; 232
    10ae:	fe 4f       	sbci	r31, 0xFE	; 254
    10b0:	47 70       	andi	r20, 0x07	; 7
    10b2:	55 27       	eor	r21, r21
    10b4:	81 e0       	ldi	r24, 0x01	; 1
    10b6:	90 e0       	ldi	r25, 0x00	; 0
    10b8:	01 c0       	rjmp	.+2      	; 0x10bc <_ZN16Adafruit_SSD130613drawFastHLineEiiij+0x25e>
    10ba:	88 0f       	add	r24, r24
    10bc:	4a 95       	dec	r20
    10be:	ea f7       	brpl	.-6      	; 0x10ba <_ZN16Adafruit_SSD130613drawFastHLineEiiij+0x25c>
    10c0:	48 2f       	mov	r20, r24
    10c2:	01 30       	cpi	r16, 0x01	; 1
    10c4:	11 05       	cpc	r17, r1
    10c6:	39 f0       	breq	.+14     	; 0x10d6 <_ZN16Adafruit_SSD130613drawFastHLineEiiij+0x278>
    10c8:	78 f0       	brcs	.+30     	; 0x10e8 <_ZN16Adafruit_SSD130613drawFastHLineEiiij+0x28a>
    10ca:	02 30       	cpi	r16, 0x02	; 2
    10cc:	11 05       	cpc	r17, r1
    10ce:	e9 f4       	brne	.+58     	; 0x110a <_ZN16Adafruit_SSD130613drawFastHLineEiiij+0x2ac>
    10d0:	2e 0f       	add	r18, r30
    10d2:	3f 1f       	adc	r19, r31
    10d4:	13 c0       	rjmp	.+38     	; 0x10fc <_ZN16Adafruit_SSD130613drawFastHLineEiiij+0x29e>
    10d6:	2e 0f       	add	r18, r30
    10d8:	3f 1f       	adc	r19, r31
    10da:	e2 17       	cp	r30, r18
    10dc:	f3 07       	cpc	r31, r19
    10de:	a9 f0       	breq	.+42     	; 0x110a <_ZN16Adafruit_SSD130613drawFastHLineEiiij+0x2ac>
    10e0:	80 81       	ld	r24, Z
    10e2:	84 2b       	or	r24, r20
    10e4:	81 93       	st	Z+, r24
    10e6:	f9 cf       	rjmp	.-14     	; 0x10da <_ZN16Adafruit_SSD130613drawFastHLineEiiij+0x27c>
    10e8:	80 95       	com	r24
    10ea:	2e 0f       	add	r18, r30
    10ec:	3f 1f       	adc	r19, r31
    10ee:	e2 17       	cp	r30, r18
    10f0:	f3 07       	cpc	r31, r19
    10f2:	59 f0       	breq	.+22     	; 0x110a <_ZN16Adafruit_SSD130613drawFastHLineEiiij+0x2ac>
    10f4:	90 81       	ld	r25, Z
    10f6:	98 23       	and	r25, r24
    10f8:	91 93       	st	Z+, r25
    10fa:	f9 cf       	rjmp	.-14     	; 0x10ee <_ZN16Adafruit_SSD130613drawFastHLineEiiij+0x290>
    10fc:	e2 17       	cp	r30, r18
    10fe:	f3 07       	cpc	r31, r19
    1100:	21 f0       	breq	.+8      	; 0x110a <_ZN16Adafruit_SSD130613drawFastHLineEiiij+0x2ac>
    1102:	80 81       	ld	r24, Z
    1104:	84 27       	eor	r24, r20
    1106:	81 93       	st	Z+, r24
    1108:	f9 cf       	rjmp	.-14     	; 0x10fc <_ZN16Adafruit_SSD130613drawFastHLineEiiij+0x29e>
    110a:	df 91       	pop	r29
    110c:	cf 91       	pop	r28
    110e:	1f 91       	pop	r17
    1110:	0f 91       	pop	r16
    1112:	08 95       	ret

00001114 <_ZN16Adafruit_SSD130613drawFastVLineEiiij>:
    1114:	0f 93       	push	r16
    1116:	1f 93       	push	r17
    1118:	cf 93       	push	r28
    111a:	df 93       	push	r29
    111c:	dc 01       	movw	r26, r24
    111e:	55 96       	adiw	r26, 0x15	; 21
    1120:	8c 91       	ld	r24, X
    1122:	55 97       	sbiw	r26, 0x15	; 21
    1124:	82 30       	cpi	r24, 0x02	; 2
    1126:	71 f0       	breq	.+28     	; 0x1144 <_ZN16Adafruit_SSD130613drawFastVLineEiiij+0x30>
    1128:	83 30       	cpi	r24, 0x03	; 3
    112a:	09 f1       	breq	.+66     	; 0x116e <_ZN16Adafruit_SSD130613drawFastVLineEiiij+0x5a>
    112c:	81 30       	cpi	r24, 0x01	; 1
    112e:	09 f0       	breq	.+2      	; 0x1132 <_ZN16Adafruit_SSD130613drawFastVLineEiiij+0x1e>
    1130:	8c c0       	rjmp	.+280    	; 0x124a <_ZN16Adafruit_SSD130613drawFastVLineEiiij+0x136>
    1132:	14 96       	adiw	r26, 0x04	; 4
    1134:	ed 91       	ld	r30, X+
    1136:	fc 91       	ld	r31, X
    1138:	15 97       	sbiw	r26, 0x05	; 5
    113a:	e4 1b       	sub	r30, r20
    113c:	f5 0b       	sbc	r31, r21
    113e:	e2 1b       	sub	r30, r18
    1140:	f3 0b       	sbc	r31, r19
    1142:	20 c0       	rjmp	.+64     	; 0x1184 <_ZN16Adafruit_SSD130613drawFastVLineEiiij+0x70>
    1144:	14 96       	adiw	r26, 0x04	; 4
    1146:	ed 91       	ld	r30, X+
    1148:	fc 91       	ld	r31, X
    114a:	15 97       	sbiw	r26, 0x05	; 5
    114c:	cf 01       	movw	r24, r30
    114e:	86 1b       	sub	r24, r22
    1150:	97 0b       	sbc	r25, r23
    1152:	bc 01       	movw	r22, r24
    1154:	61 50       	subi	r22, 0x01	; 1
    1156:	71 09       	sbc	r23, r1
    1158:	16 96       	adiw	r26, 0x06	; 6
    115a:	ed 91       	ld	r30, X+
    115c:	fc 91       	ld	r31, X
    115e:	17 97       	sbiw	r26, 0x07	; 7
    1160:	cf 01       	movw	r24, r30
    1162:	84 1b       	sub	r24, r20
    1164:	95 0b       	sbc	r25, r21
    1166:	ac 01       	movw	r20, r24
    1168:	42 1b       	sub	r20, r18
    116a:	53 0b       	sbc	r21, r19
    116c:	6e c0       	rjmp	.+220    	; 0x124a <_ZN16Adafruit_SSD130613drawFastVLineEiiij+0x136>
    116e:	16 96       	adiw	r26, 0x06	; 6
    1170:	ed 91       	ld	r30, X+
    1172:	fc 91       	ld	r31, X
    1174:	17 97       	sbiw	r26, 0x07	; 7
    1176:	cf 01       	movw	r24, r30
    1178:	86 1b       	sub	r24, r22
    117a:	97 0b       	sbc	r25, r23
    117c:	bc 01       	movw	r22, r24
    117e:	61 50       	subi	r22, 0x01	; 1
    1180:	71 09       	sbc	r23, r1
    1182:	fa 01       	movw	r30, r20
    1184:	77 fd       	sbrc	r23, 7
    1186:	1b c1       	rjmp	.+566    	; 0x13be <_ZN16Adafruit_SSD130613drawFastVLineEiiij+0x2aa>
    1188:	16 96       	adiw	r26, 0x06	; 6
    118a:	8d 91       	ld	r24, X+
    118c:	9c 91       	ld	r25, X
    118e:	17 97       	sbiw	r26, 0x07	; 7
    1190:	68 17       	cp	r22, r24
    1192:	79 07       	cpc	r23, r25
    1194:	0c f0       	brlt	.+2      	; 0x1198 <_ZN16Adafruit_SSD130613drawFastVLineEiiij+0x84>
    1196:	13 c1       	rjmp	.+550    	; 0x13be <_ZN16Adafruit_SSD130613drawFastVLineEiiij+0x2aa>
    1198:	f7 ff       	sbrs	r31, 7
    119a:	04 c0       	rjmp	.+8      	; 0x11a4 <_ZN16Adafruit_SSD130613drawFastVLineEiiij+0x90>
    119c:	2e 0f       	add	r18, r30
    119e:	3f 1f       	adc	r19, r31
    11a0:	e0 e0       	ldi	r30, 0x00	; 0
    11a2:	f0 e0       	ldi	r31, 0x00	; 0
    11a4:	14 96       	adiw	r26, 0x04	; 4
    11a6:	8d 91       	ld	r24, X+
    11a8:	9c 91       	ld	r25, X
    11aa:	15 97       	sbiw	r26, 0x05	; 5
    11ac:	af 01       	movw	r20, r30
    11ae:	42 0f       	add	r20, r18
    11b0:	53 1f       	adc	r21, r19
    11b2:	84 17       	cp	r24, r20
    11b4:	95 07       	cpc	r25, r21
    11b6:	1c f4       	brge	.+6      	; 0x11be <_ZN16Adafruit_SSD130613drawFastVLineEiiij+0xaa>
    11b8:	9c 01       	movw	r18, r24
    11ba:	2e 1b       	sub	r18, r30
    11bc:	3f 0b       	sbc	r19, r31
    11be:	12 16       	cp	r1, r18
    11c0:	13 06       	cpc	r1, r19
    11c2:	0c f0       	brlt	.+2      	; 0x11c6 <_ZN16Adafruit_SSD130613drawFastVLineEiiij+0xb2>
    11c4:	fc c0       	rjmp	.+504    	; 0x13be <_ZN16Adafruit_SSD130613drawFastVLineEiiij+0x2aa>
    11c6:	cb 01       	movw	r24, r22
    11c8:	77 fd       	sbrc	r23, 7
    11ca:	07 96       	adiw	r24, 0x07	; 7
    11cc:	43 e0       	ldi	r20, 0x03	; 3
    11ce:	95 95       	asr	r25
    11d0:	87 95       	ror	r24
    11d2:	4a 95       	dec	r20
    11d4:	e1 f7       	brne	.-8      	; 0x11ce <_ZN16Adafruit_SSD130613drawFastVLineEiiij+0xba>
    11d6:	96 95       	lsr	r25
    11d8:	98 2f       	mov	r25, r24
    11da:	88 27       	eor	r24, r24
    11dc:	97 95       	ror	r25
    11de:	87 95       	ror	r24
    11e0:	e8 0f       	add	r30, r24
    11e2:	f9 1f       	adc	r31, r25
    11e4:	e8 5e       	subi	r30, 0xE8	; 232
    11e6:	fe 4f       	sbci	r31, 0xFE	; 254
    11e8:	67 70       	andi	r22, 0x07	; 7
    11ea:	77 27       	eor	r23, r23
    11ec:	81 e0       	ldi	r24, 0x01	; 1
    11ee:	90 e0       	ldi	r25, 0x00	; 0
    11f0:	01 c0       	rjmp	.+2      	; 0x11f4 <_ZN16Adafruit_SSD130613drawFastVLineEiiij+0xe0>
    11f2:	88 0f       	add	r24, r24
    11f4:	6a 95       	dec	r22
    11f6:	ea f7       	brpl	.-6      	; 0x11f2 <_ZN16Adafruit_SSD130613drawFastVLineEiiij+0xde>
    11f8:	48 2f       	mov	r20, r24
    11fa:	01 30       	cpi	r16, 0x01	; 1
    11fc:	11 05       	cpc	r17, r1
    11fe:	41 f0       	breq	.+16     	; 0x1210 <_ZN16Adafruit_SSD130613drawFastVLineEiiij+0xfc>
    1200:	88 f0       	brcs	.+34     	; 0x1224 <_ZN16Adafruit_SSD130613drawFastVLineEiiij+0x110>
    1202:	02 30       	cpi	r16, 0x02	; 2
    1204:	11 05       	cpc	r17, r1
    1206:	09 f0       	breq	.+2      	; 0x120a <_ZN16Adafruit_SSD130613drawFastVLineEiiij+0xf6>
    1208:	da c0       	rjmp	.+436    	; 0x13be <_ZN16Adafruit_SSD130613drawFastVLineEiiij+0x2aa>
    120a:	2e 0f       	add	r18, r30
    120c:	3f 1f       	adc	r19, r31
    120e:	15 c0       	rjmp	.+42     	; 0x123a <_ZN16Adafruit_SSD130613drawFastVLineEiiij+0x126>
    1210:	2e 0f       	add	r18, r30
    1212:	3f 1f       	adc	r19, r31
    1214:	e2 17       	cp	r30, r18
    1216:	f3 07       	cpc	r31, r19
    1218:	09 f4       	brne	.+2      	; 0x121c <_ZN16Adafruit_SSD130613drawFastVLineEiiij+0x108>
    121a:	d1 c0       	rjmp	.+418    	; 0x13be <_ZN16Adafruit_SSD130613drawFastVLineEiiij+0x2aa>
    121c:	80 81       	ld	r24, Z
    121e:	84 2b       	or	r24, r20
    1220:	81 93       	st	Z+, r24
    1222:	f8 cf       	rjmp	.-16     	; 0x1214 <_ZN16Adafruit_SSD130613drawFastVLineEiiij+0x100>
    1224:	80 95       	com	r24
    1226:	2e 0f       	add	r18, r30
    1228:	3f 1f       	adc	r19, r31
    122a:	e2 17       	cp	r30, r18
    122c:	f3 07       	cpc	r31, r19
    122e:	09 f4       	brne	.+2      	; 0x1232 <_ZN16Adafruit_SSD130613drawFastVLineEiiij+0x11e>
    1230:	c6 c0       	rjmp	.+396    	; 0x13be <_ZN16Adafruit_SSD130613drawFastVLineEiiij+0x2aa>
    1232:	90 81       	ld	r25, Z
    1234:	98 23       	and	r25, r24
    1236:	91 93       	st	Z+, r25
    1238:	f8 cf       	rjmp	.-16     	; 0x122a <_ZN16Adafruit_SSD130613drawFastVLineEiiij+0x116>
    123a:	e2 17       	cp	r30, r18
    123c:	f3 07       	cpc	r31, r19
    123e:	09 f4       	brne	.+2      	; 0x1242 <_ZN16Adafruit_SSD130613drawFastVLineEiiij+0x12e>
    1240:	be c0       	rjmp	.+380    	; 0x13be <_ZN16Adafruit_SSD130613drawFastVLineEiiij+0x2aa>
    1242:	80 81       	ld	r24, Z
    1244:	84 27       	eor	r24, r20
    1246:	81 93       	st	Z+, r24
    1248:	f8 cf       	rjmp	.-16     	; 0x123a <_ZN16Adafruit_SSD130613drawFastVLineEiiij+0x126>
    124a:	77 fd       	sbrc	r23, 7
    124c:	b8 c0       	rjmp	.+368    	; 0x13be <_ZN16Adafruit_SSD130613drawFastVLineEiiij+0x2aa>
    124e:	14 96       	adiw	r26, 0x04	; 4
    1250:	8d 91       	ld	r24, X+
    1252:	9c 91       	ld	r25, X
    1254:	15 97       	sbiw	r26, 0x05	; 5
    1256:	68 17       	cp	r22, r24
    1258:	79 07       	cpc	r23, r25
    125a:	0c f0       	brlt	.+2      	; 0x125e <_ZN16Adafruit_SSD130613drawFastVLineEiiij+0x14a>
    125c:	b0 c0       	rjmp	.+352    	; 0x13be <_ZN16Adafruit_SSD130613drawFastVLineEiiij+0x2aa>
    125e:	57 ff       	sbrs	r21, 7
    1260:	04 c0       	rjmp	.+8      	; 0x126a <_ZN16Adafruit_SSD130613drawFastVLineEiiij+0x156>
    1262:	24 0f       	add	r18, r20
    1264:	35 1f       	adc	r19, r21
    1266:	40 e0       	ldi	r20, 0x00	; 0
    1268:	50 e0       	ldi	r21, 0x00	; 0
    126a:	16 96       	adiw	r26, 0x06	; 6
    126c:	8d 91       	ld	r24, X+
    126e:	9c 91       	ld	r25, X
    1270:	17 97       	sbiw	r26, 0x07	; 7
    1272:	fa 01       	movw	r30, r20
    1274:	e2 0f       	add	r30, r18
    1276:	f3 1f       	adc	r31, r19
    1278:	8e 17       	cp	r24, r30
    127a:	9f 07       	cpc	r25, r31
    127c:	1c f4       	brge	.+6      	; 0x1284 <_ZN16Adafruit_SSD130613drawFastVLineEiiij+0x170>
    127e:	9c 01       	movw	r18, r24
    1280:	24 1b       	sub	r18, r20
    1282:	35 0b       	sbc	r19, r21
    1284:	12 16       	cp	r1, r18
    1286:	13 06       	cpc	r1, r19
    1288:	0c f0       	brlt	.+2      	; 0x128c <_ZN16Adafruit_SSD130613drawFastVLineEiiij+0x178>
    128a:	99 c0       	rjmp	.+306    	; 0x13be <_ZN16Adafruit_SSD130613drawFastVLineEiiij+0x2aa>
    128c:	a2 2f       	mov	r26, r18
    128e:	84 2f       	mov	r24, r20
    1290:	86 95       	lsr	r24
    1292:	86 95       	lsr	r24
    1294:	86 95       	lsr	r24
    1296:	90 e8       	ldi	r25, 0x80	; 128
    1298:	89 9f       	mul	r24, r25
    129a:	60 0d       	add	r22, r0
    129c:	71 1d       	adc	r23, r1
    129e:	11 24       	eor	r1, r1
    12a0:	fb 01       	movw	r30, r22
    12a2:	e8 5e       	subi	r30, 0xE8	; 232
    12a4:	fe 4f       	sbci	r31, 0xFE	; 254
    12a6:	47 70       	andi	r20, 0x07	; 7
    12a8:	a9 f1       	breq	.+106    	; 0x1314 <_ZN16Adafruit_SSD130613drawFastVLineEiiij+0x200>
    12aa:	98 e0       	ldi	r25, 0x08	; 8
    12ac:	94 1b       	sub	r25, r20
    12ae:	49 2f       	mov	r20, r25
    12b0:	50 e0       	ldi	r21, 0x00	; 0
    12b2:	ea 01       	movw	r28, r20
    12b4:	c0 5f       	subi	r28, 0xF0	; 240
    12b6:	de 4f       	sbci	r29, 0xFE	; 254
    12b8:	88 81       	ld	r24, Y
    12ba:	29 17       	cp	r18, r25
    12bc:	90 f4       	brcc	.+36     	; 0x12e2 <_ZN16Adafruit_SSD130613drawFastVLineEiiij+0x1ce>
    12be:	42 1b       	sub	r20, r18
    12c0:	51 09       	sbc	r21, r1
    12c2:	2f ef       	ldi	r18, 0xFF	; 255
    12c4:	30 e0       	ldi	r19, 0x00	; 0
    12c6:	02 c0       	rjmp	.+4      	; 0x12cc <_ZN16Adafruit_SSD130613drawFastVLineEiiij+0x1b8>
    12c8:	35 95       	asr	r19
    12ca:	27 95       	ror	r18
    12cc:	4a 95       	dec	r20
    12ce:	e2 f7       	brpl	.-8      	; 0x12c8 <_ZN16Adafruit_SSD130613drawFastVLineEiiij+0x1b4>
    12d0:	82 23       	and	r24, r18
    12d2:	01 30       	cpi	r16, 0x01	; 1
    12d4:	11 05       	cpc	r17, r1
    12d6:	41 f0       	breq	.+16     	; 0x12e8 <_ZN16Adafruit_SSD130613drawFastVLineEiiij+0x1d4>
    12d8:	68 f0       	brcs	.+26     	; 0x12f4 <_ZN16Adafruit_SSD130613drawFastVLineEiiij+0x1e0>
    12da:	02 30       	cpi	r16, 0x02	; 2
    12dc:	11 05       	cpc	r17, r1
    12de:	89 f0       	breq	.+34     	; 0x1302 <_ZN16Adafruit_SSD130613drawFastVLineEiiij+0x1ee>
    12e0:	6e c0       	rjmp	.+220    	; 0x13be <_ZN16Adafruit_SSD130613drawFastVLineEiiij+0x2aa>
    12e2:	01 30       	cpi	r16, 0x01	; 1
    12e4:	11 05       	cpc	r17, r1
    12e6:	19 f4       	brne	.+6      	; 0x12ee <_ZN16Adafruit_SSD130613drawFastVLineEiiij+0x1da>
    12e8:	20 81       	ld	r18, Z
    12ea:	82 2b       	or	r24, r18
    12ec:	0c c0       	rjmp	.+24     	; 0x1306 <_ZN16Adafruit_SSD130613drawFastVLineEiiij+0x1f2>
    12ee:	01 30       	cpi	r16, 0x01	; 1
    12f0:	11 05       	cpc	r17, r1
    12f2:	20 f4       	brcc	.+8      	; 0x12fc <_ZN16Adafruit_SSD130613drawFastVLineEiiij+0x1e8>
    12f4:	80 95       	com	r24
    12f6:	20 81       	ld	r18, Z
    12f8:	82 23       	and	r24, r18
    12fa:	05 c0       	rjmp	.+10     	; 0x1306 <_ZN16Adafruit_SSD130613drawFastVLineEiiij+0x1f2>
    12fc:	02 30       	cpi	r16, 0x02	; 2
    12fe:	11 05       	cpc	r17, r1
    1300:	31 f4       	brne	.+12     	; 0x130e <_ZN16Adafruit_SSD130613drawFastVLineEiiij+0x1fa>
    1302:	20 81       	ld	r18, Z
    1304:	82 27       	eor	r24, r18
    1306:	80 83       	st	Z, r24
    1308:	a9 17       	cp	r26, r25
    130a:	08 f4       	brcc	.+2      	; 0x130e <_ZN16Adafruit_SSD130613drawFastVLineEiiij+0x1fa>
    130c:	58 c0       	rjmp	.+176    	; 0x13be <_ZN16Adafruit_SSD130613drawFastVLineEiiij+0x2aa>
    130e:	a9 1b       	sub	r26, r25
    1310:	e0 58       	subi	r30, 0x80	; 128
    1312:	ff 4f       	sbci	r31, 0xFF	; 255
    1314:	a8 30       	cpi	r26, 0x08	; 8
    1316:	48 f1       	brcs	.+82     	; 0x136a <_ZN16Adafruit_SSD130613drawFastVLineEiiij+0x256>
    1318:	02 30       	cpi	r16, 0x02	; 2
    131a:	11 05       	cpc	r17, r1
    131c:	59 f4       	brne	.+22     	; 0x1334 <_ZN16Adafruit_SSD130613drawFastVLineEiiij+0x220>
    131e:	ef 01       	movw	r28, r30
    1320:	8a 2f       	mov	r24, r26
    1322:	98 81       	ld	r25, Y
    1324:	90 95       	com	r25
    1326:	98 83       	st	Y, r25
    1328:	c0 58       	subi	r28, 0x80	; 128
    132a:	df 4f       	sbci	r29, 0xFF	; 255
    132c:	88 50       	subi	r24, 0x08	; 8
    132e:	88 30       	cpi	r24, 0x08	; 8
    1330:	c0 f7       	brcc	.-16     	; 0x1322 <_ZN16Adafruit_SSD130613drawFastVLineEiiij+0x20e>
    1332:	30 c0       	rjmp	.+96     	; 0x1394 <_ZN16Adafruit_SSD130613drawFastVLineEiiij+0x280>
    1334:	81 e0       	ldi	r24, 0x01	; 1
    1336:	01 30       	cpi	r16, 0x01	; 1
    1338:	11 05       	cpc	r17, r1
    133a:	09 f0       	breq	.+2      	; 0x133e <_ZN16Adafruit_SSD130613drawFastVLineEiiij+0x22a>
    133c:	80 e0       	ldi	r24, 0x00	; 0
    133e:	81 95       	neg	r24
    1340:	ef 01       	movw	r28, r30
    1342:	9a 2f       	mov	r25, r26
    1344:	88 83       	st	Y, r24
    1346:	c0 58       	subi	r28, 0x80	; 128
    1348:	df 4f       	sbci	r29, 0xFF	; 255
    134a:	98 50       	subi	r25, 0x08	; 8
    134c:	98 30       	cpi	r25, 0x08	; 8
    134e:	d0 f7       	brcc	.-12     	; 0x1344 <_ZN16Adafruit_SSD130613drawFastVLineEiiij+0x230>
    1350:	88 ef       	ldi	r24, 0xF8	; 248
    1352:	8a 0f       	add	r24, r26
    1354:	86 95       	lsr	r24
    1356:	86 95       	lsr	r24
    1358:	86 95       	lsr	r24
    135a:	90 e8       	ldi	r25, 0x80	; 128
    135c:	89 9f       	mul	r24, r25
    135e:	e0 0d       	add	r30, r0
    1360:	f1 1d       	adc	r31, r1
    1362:	11 24       	eor	r1, r1
    1364:	e0 58       	subi	r30, 0x80	; 128
    1366:	ff 4f       	sbci	r31, 0xFF	; 255
    1368:	a7 70       	andi	r26, 0x07	; 7
    136a:	aa 23       	and	r26, r26
    136c:	41 f1       	breq	.+80     	; 0x13be <_ZN16Adafruit_SSD130613drawFastVLineEiiij+0x2aa>
    136e:	b0 e0       	ldi	r27, 0x00	; 0
    1370:	a8 5f       	subi	r26, 0xF8	; 248
    1372:	be 4f       	sbci	r27, 0xFE	; 254
    1374:	8c 91       	ld	r24, X
    1376:	01 30       	cpi	r16, 0x01	; 1
    1378:	11 05       	cpc	r17, r1
    137a:	29 f0       	breq	.+10     	; 0x1386 <_ZN16Adafruit_SSD130613drawFastVLineEiiij+0x272>
    137c:	38 f0       	brcs	.+14     	; 0x138c <_ZN16Adafruit_SSD130613drawFastVLineEiiij+0x278>
    137e:	02 30       	cpi	r16, 0x02	; 2
    1380:	11 05       	cpc	r17, r1
    1382:	e9 f4       	brne	.+58     	; 0x13be <_ZN16Adafruit_SSD130613drawFastVLineEiiij+0x2aa>
    1384:	19 c0       	rjmp	.+50     	; 0x13b8 <_ZN16Adafruit_SSD130613drawFastVLineEiiij+0x2a4>
    1386:	90 81       	ld	r25, Z
    1388:	89 2b       	or	r24, r25
    138a:	18 c0       	rjmp	.+48     	; 0x13bc <_ZN16Adafruit_SSD130613drawFastVLineEiiij+0x2a8>
    138c:	80 95       	com	r24
    138e:	90 81       	ld	r25, Z
    1390:	89 23       	and	r24, r25
    1392:	14 c0       	rjmp	.+40     	; 0x13bc <_ZN16Adafruit_SSD130613drawFastVLineEiiij+0x2a8>
    1394:	88 ef       	ldi	r24, 0xF8	; 248
    1396:	8a 0f       	add	r24, r26
    1398:	86 95       	lsr	r24
    139a:	86 95       	lsr	r24
    139c:	86 95       	lsr	r24
    139e:	90 e8       	ldi	r25, 0x80	; 128
    13a0:	89 9f       	mul	r24, r25
    13a2:	e0 0d       	add	r30, r0
    13a4:	f1 1d       	adc	r31, r1
    13a6:	11 24       	eor	r1, r1
    13a8:	e0 58       	subi	r30, 0x80	; 128
    13aa:	ff 4f       	sbci	r31, 0xFF	; 255
    13ac:	a7 70       	andi	r26, 0x07	; 7
    13ae:	39 f0       	breq	.+14     	; 0x13be <_ZN16Adafruit_SSD130613drawFastVLineEiiij+0x2aa>
    13b0:	b0 e0       	ldi	r27, 0x00	; 0
    13b2:	a8 5f       	subi	r26, 0xF8	; 248
    13b4:	be 4f       	sbci	r27, 0xFE	; 254
    13b6:	8c 91       	ld	r24, X
    13b8:	90 81       	ld	r25, Z
    13ba:	89 27       	eor	r24, r25
    13bc:	80 83       	st	Z, r24
    13be:	df 91       	pop	r29
    13c0:	cf 91       	pop	r28
    13c2:	1f 91       	pop	r17
    13c4:	0f 91       	pop	r16
    13c6:	08 95       	ret

000013c8 <_ZN16Adafruit_SSD13069drawPixelEiij>:
    13c8:	cf 92       	push	r12
    13ca:	df 92       	push	r13
    13cc:	ef 92       	push	r14
    13ce:	ff 92       	push	r15
    13d0:	0f 93       	push	r16
    13d2:	1f 93       	push	r17
    13d4:	cf 93       	push	r28
    13d6:	df 93       	push	r29
    13d8:	7c 01       	movw	r14, r24
    13da:	8b 01       	movw	r16, r22
    13dc:	ea 01       	movw	r28, r20
    13de:	69 01       	movw	r12, r18
    13e0:	77 fd       	sbrc	r23, 7
    13e2:	a0 c0       	rjmp	.+320    	; 0x1524 <_ZN16Adafruit_SSD13069drawPixelEiij+0x15c>
    13e4:	0e 94 27 07 	call	0xe4e	; 0xe4e <_ZNK12Adafruit_GFX5widthEv>
    13e8:	08 17       	cp	r16, r24
    13ea:	19 07       	cpc	r17, r25
    13ec:	0c f0       	brlt	.+2      	; 0x13f0 <_ZN16Adafruit_SSD13069drawPixelEiij+0x28>
    13ee:	9a c0       	rjmp	.+308    	; 0x1524 <_ZN16Adafruit_SSD13069drawPixelEiij+0x15c>
    13f0:	d7 fd       	sbrc	r29, 7
    13f2:	98 c0       	rjmp	.+304    	; 0x1524 <_ZN16Adafruit_SSD13069drawPixelEiij+0x15c>
    13f4:	c7 01       	movw	r24, r14
    13f6:	0e 94 2b 07 	call	0xe56	; 0xe56 <_ZNK12Adafruit_GFX6heightEv>
    13fa:	c8 17       	cp	r28, r24
    13fc:	d9 07       	cpc	r29, r25
    13fe:	0c f0       	brlt	.+2      	; 0x1402 <_ZN16Adafruit_SSD13069drawPixelEiij+0x3a>
    1400:	91 c0       	rjmp	.+290    	; 0x1524 <_ZN16Adafruit_SSD13069drawPixelEiij+0x15c>
    1402:	c7 01       	movw	r24, r14
    1404:	0e 94 24 07 	call	0xe48	; 0xe48 <_ZNK12Adafruit_GFX11getRotationEv>
    1408:	82 30       	cpi	r24, 0x02	; 2
    140a:	09 f0       	breq	.+2      	; 0x140e <_ZN16Adafruit_SSD13069drawPixelEiij+0x46>
    140c:	7f c0       	rjmp	.+254    	; 0x150c <_ZN16Adafruit_SSD13069drawPixelEiij+0x144>
    140e:	f7 01       	movw	r30, r14
    1410:	84 81       	ldd	r24, Z+4	; 0x04
    1412:	95 81       	ldd	r25, Z+5	; 0x05
    1414:	9c 01       	movw	r18, r24
    1416:	20 1b       	sub	r18, r16
    1418:	31 0b       	sbc	r19, r17
    141a:	89 01       	movw	r16, r18
    141c:	01 50       	subi	r16, 0x01	; 1
    141e:	11 09       	sbc	r17, r1
    1420:	86 81       	ldd	r24, Z+6	; 0x06
    1422:	97 81       	ldd	r25, Z+7	; 0x07
    1424:	fc 01       	movw	r30, r24
    1426:	ec 1b       	sub	r30, r28
    1428:	fd 0b       	sbc	r31, r29
    142a:	ef 01       	movw	r28, r30
    142c:	21 97       	sbiw	r28, 0x01	; 1
    142e:	0b c0       	rjmp	.+22     	; 0x1446 <_ZN16Adafruit_SSD13069drawPixelEiij+0x7e>
    1430:	81 30       	cpi	r24, 0x01	; 1
    1432:	49 f4       	brne	.+18     	; 0x1446 <_ZN16Adafruit_SSD13069drawPixelEiij+0x7e>
    1434:	f7 01       	movw	r30, r14
    1436:	84 81       	ldd	r24, Z+4	; 0x04
    1438:	95 81       	ldd	r25, Z+5	; 0x05
    143a:	8c 1b       	sub	r24, r28
    143c:	9d 0b       	sbc	r25, r29
    143e:	e8 01       	movw	r28, r16
    1440:	8c 01       	movw	r16, r24
    1442:	01 50       	subi	r16, 0x01	; 1
    1444:	11 09       	sbc	r17, r1
    1446:	f1 e0       	ldi	r31, 0x01	; 1
    1448:	cf 16       	cp	r12, r31
    144a:	d1 04       	cpc	r13, r1
    144c:	31 f0       	breq	.+12     	; 0x145a <_ZN16Adafruit_SSD13069drawPixelEiij+0x92>
    144e:	10 f1       	brcs	.+68     	; 0x1494 <_ZN16Adafruit_SSD13069drawPixelEiij+0xcc>
    1450:	32 e0       	ldi	r19, 0x02	; 2
    1452:	c3 16       	cp	r12, r19
    1454:	d1 04       	cpc	r13, r1
    1456:	e1 f1       	breq	.+120    	; 0x14d0 <_ZN16Adafruit_SSD13069drawPixelEiij+0x108>
    1458:	65 c0       	rjmp	.+202    	; 0x1524 <_ZN16Adafruit_SSD13069drawPixelEiij+0x15c>
    145a:	fe 01       	movw	r30, r28
    145c:	d7 fd       	sbrc	r29, 7
    145e:	37 96       	adiw	r30, 0x07	; 7
    1460:	43 e0       	ldi	r20, 0x03	; 3
    1462:	f5 95       	asr	r31
    1464:	e7 95       	ror	r30
    1466:	4a 95       	dec	r20
    1468:	e1 f7       	brne	.-8      	; 0x1462 <_ZN16Adafruit_SSD13069drawPixelEiij+0x9a>
    146a:	f6 95       	lsr	r31
    146c:	fe 2f       	mov	r31, r30
    146e:	ee 27       	eor	r30, r30
    1470:	f7 95       	ror	r31
    1472:	e7 95       	ror	r30
    1474:	0e 0f       	add	r16, r30
    1476:	1f 1f       	adc	r17, r31
    1478:	f8 01       	movw	r30, r16
    147a:	e8 5e       	subi	r30, 0xE8	; 232
    147c:	fe 4f       	sbci	r31, 0xFE	; 254
    147e:	c7 70       	andi	r28, 0x07	; 7
    1480:	dd 27       	eor	r29, r29
    1482:	81 e0       	ldi	r24, 0x01	; 1
    1484:	90 e0       	ldi	r25, 0x00	; 0
    1486:	01 c0       	rjmp	.+2      	; 0x148a <_ZN16Adafruit_SSD13069drawPixelEiij+0xc2>
    1488:	88 0f       	add	r24, r24
    148a:	ca 95       	dec	r28
    148c:	ea f7       	brpl	.-6      	; 0x1488 <_ZN16Adafruit_SSD13069drawPixelEiij+0xc0>
    148e:	90 81       	ld	r25, Z
    1490:	89 2b       	or	r24, r25
    1492:	3a c0       	rjmp	.+116    	; 0x1508 <_ZN16Adafruit_SSD13069drawPixelEiij+0x140>
    1494:	fe 01       	movw	r30, r28
    1496:	d7 fd       	sbrc	r29, 7
    1498:	37 96       	adiw	r30, 0x07	; 7
    149a:	23 e0       	ldi	r18, 0x03	; 3
    149c:	f5 95       	asr	r31
    149e:	e7 95       	ror	r30
    14a0:	2a 95       	dec	r18
    14a2:	e1 f7       	brne	.-8      	; 0x149c <_ZN16Adafruit_SSD13069drawPixelEiij+0xd4>
    14a4:	f6 95       	lsr	r31
    14a6:	fe 2f       	mov	r31, r30
    14a8:	ee 27       	eor	r30, r30
    14aa:	f7 95       	ror	r31
    14ac:	e7 95       	ror	r30
    14ae:	0e 0f       	add	r16, r30
    14b0:	1f 1f       	adc	r17, r31
    14b2:	f8 01       	movw	r30, r16
    14b4:	e8 5e       	subi	r30, 0xE8	; 232
    14b6:	fe 4f       	sbci	r31, 0xFE	; 254
    14b8:	c7 70       	andi	r28, 0x07	; 7
    14ba:	dd 27       	eor	r29, r29
    14bc:	81 e0       	ldi	r24, 0x01	; 1
    14be:	90 e0       	ldi	r25, 0x00	; 0
    14c0:	01 c0       	rjmp	.+2      	; 0x14c4 <_ZN16Adafruit_SSD13069drawPixelEiij+0xfc>
    14c2:	88 0f       	add	r24, r24
    14c4:	ca 95       	dec	r28
    14c6:	ea f7       	brpl	.-6      	; 0x14c2 <_ZN16Adafruit_SSD13069drawPixelEiij+0xfa>
    14c8:	80 95       	com	r24
    14ca:	90 81       	ld	r25, Z
    14cc:	89 23       	and	r24, r25
    14ce:	1c c0       	rjmp	.+56     	; 0x1508 <_ZN16Adafruit_SSD13069drawPixelEiij+0x140>
    14d0:	fe 01       	movw	r30, r28
    14d2:	d7 fd       	sbrc	r29, 7
    14d4:	37 96       	adiw	r30, 0x07	; 7
    14d6:	83 e0       	ldi	r24, 0x03	; 3
    14d8:	f5 95       	asr	r31
    14da:	e7 95       	ror	r30
    14dc:	8a 95       	dec	r24
    14de:	e1 f7       	brne	.-8      	; 0x14d8 <_ZN16Adafruit_SSD13069drawPixelEiij+0x110>
    14e0:	f6 95       	lsr	r31
    14e2:	fe 2f       	mov	r31, r30
    14e4:	ee 27       	eor	r30, r30
    14e6:	f7 95       	ror	r31
    14e8:	e7 95       	ror	r30
    14ea:	0e 0f       	add	r16, r30
    14ec:	1f 1f       	adc	r17, r31
    14ee:	f8 01       	movw	r30, r16
    14f0:	e8 5e       	subi	r30, 0xE8	; 232
    14f2:	fe 4f       	sbci	r31, 0xFE	; 254
    14f4:	c7 70       	andi	r28, 0x07	; 7
    14f6:	dd 27       	eor	r29, r29
    14f8:	81 e0       	ldi	r24, 0x01	; 1
    14fa:	90 e0       	ldi	r25, 0x00	; 0
    14fc:	01 c0       	rjmp	.+2      	; 0x1500 <_ZN16Adafruit_SSD13069drawPixelEiij+0x138>
    14fe:	88 0f       	add	r24, r24
    1500:	ca 95       	dec	r28
    1502:	ea f7       	brpl	.-6      	; 0x14fe <_ZN16Adafruit_SSD13069drawPixelEiij+0x136>
    1504:	90 81       	ld	r25, Z
    1506:	89 27       	eor	r24, r25
    1508:	80 83       	st	Z, r24
    150a:	0c c0       	rjmp	.+24     	; 0x1524 <_ZN16Adafruit_SSD13069drawPixelEiij+0x15c>
    150c:	83 30       	cpi	r24, 0x03	; 3
    150e:	09 f0       	breq	.+2      	; 0x1512 <_ZN16Adafruit_SSD13069drawPixelEiij+0x14a>
    1510:	8f cf       	rjmp	.-226    	; 0x1430 <_ZN16Adafruit_SSD13069drawPixelEiij+0x68>
    1512:	f7 01       	movw	r30, r14
    1514:	86 81       	ldd	r24, Z+6	; 0x06
    1516:	97 81       	ldd	r25, Z+7	; 0x07
    1518:	80 1b       	sub	r24, r16
    151a:	91 0b       	sbc	r25, r17
    151c:	8e 01       	movw	r16, r28
    151e:	ec 01       	movw	r28, r24
    1520:	21 97       	sbiw	r28, 0x01	; 1
    1522:	91 cf       	rjmp	.-222    	; 0x1446 <_ZN16Adafruit_SSD13069drawPixelEiij+0x7e>
    1524:	df 91       	pop	r29
    1526:	cf 91       	pop	r28
    1528:	1f 91       	pop	r17
    152a:	0f 91       	pop	r16
    152c:	ff 90       	pop	r15
    152e:	ef 90       	pop	r14
    1530:	df 90       	pop	r13
    1532:	cf 90       	pop	r12
    1534:	08 95       	ret

00001536 <_ZN16Adafruit_SSD1306C1Ev>:
    1536:	cf 93       	push	r28
    1538:	df 93       	push	r29
    153a:	ec 01       	movw	r28, r24
    153c:	40 e4       	ldi	r20, 0x40	; 64
    153e:	50 e0       	ldi	r21, 0x00	; 0
    1540:	60 e8       	ldi	r22, 0x80	; 128
    1542:	70 e0       	ldi	r23, 0x00	; 0
    1544:	0e 94 be 05 	call	0xb7c	; 0xb7c <_ZN12Adafruit_GFXC1Eii>
    1548:	8e e3       	ldi	r24, 0x3E	; 62
    154a:	95 e0       	ldi	r25, 0x05	; 5
    154c:	99 83       	std	Y+1, r25	; 0x01
    154e:	88 83       	st	Y, r24
    1550:	8f ef       	ldi	r24, 0xFF	; 255
    1552:	89 8f       	std	Y+25, r24	; 0x19
    1554:	8d 8f       	std	Y+29, r24	; 0x1d
    1556:	8b 8f       	std	Y+27, r24	; 0x1b
    1558:	8a 8f       	std	Y+26, r24	; 0x1a
    155a:	df 91       	pop	r29
    155c:	cf 91       	pop	r28
    155e:	08 95       	ret

00001560 <_ZN16Adafruit_SSD130615ssd1306_commandEh>:
    1560:	cf 93       	push	r28
    1562:	df 93       	push	r29
    1564:	1f 92       	push	r1
    1566:	cd b7       	in	r28, 0x3d	; 61
    1568:	de b7       	in	r29, 0x3e	; 62
    156a:	69 83       	std	Y+1, r22	; 0x01
    156c:	21 e0       	ldi	r18, 0x01	; 1
    156e:	ae 01       	movw	r20, r28
    1570:	4f 5f       	subi	r20, 0xFF	; 255
    1572:	5f 4f       	sbci	r21, 0xFF	; 255
    1574:	60 e0       	ldi	r22, 0x00	; 0
    1576:	fc 01       	movw	r30, r24
    1578:	87 89       	ldd	r24, Z+23	; 0x17
    157a:	0e 94 fe 0f 	call	0x1ffc	; 0x1ffc <_Z9i2c_writehhPhh>
    157e:	0f 90       	pop	r0
    1580:	df 91       	pop	r29
    1582:	cf 91       	pop	r28
    1584:	08 95       	ret

00001586 <_ZN16Adafruit_SSD13065beginEhhb>:
    1586:	1f 93       	push	r17
    1588:	cf 93       	push	r28
    158a:	df 93       	push	r29
    158c:	ec 01       	movw	r28, r24
    158e:	16 2f       	mov	r17, r22
    1590:	68 8f       	std	Y+24, r22	; 0x18
    1592:	4f 8b       	std	Y+23, r20	; 0x17
    1594:	60 ea       	ldi	r22, 0xA0	; 160
    1596:	76 e8       	ldi	r23, 0x86	; 134
    1598:	81 e0       	ldi	r24, 0x01	; 1
    159a:	90 e0       	ldi	r25, 0x00	; 0
    159c:	0e 94 e3 0e 	call	0x1dc6	; 0x1dc6 <_Z8i2c_initm>
    15a0:	6e ea       	ldi	r22, 0xAE	; 174
    15a2:	ce 01       	movw	r24, r28
    15a4:	0e 94 b0 0a 	call	0x1560	; 0x1560 <_ZN16Adafruit_SSD130615ssd1306_commandEh>
    15a8:	65 ed       	ldi	r22, 0xD5	; 213
    15aa:	ce 01       	movw	r24, r28
    15ac:	0e 94 b0 0a 	call	0x1560	; 0x1560 <_ZN16Adafruit_SSD130615ssd1306_commandEh>
    15b0:	60 e8       	ldi	r22, 0x80	; 128
    15b2:	ce 01       	movw	r24, r28
    15b4:	0e 94 b0 0a 	call	0x1560	; 0x1560 <_ZN16Adafruit_SSD130615ssd1306_commandEh>
    15b8:	68 ea       	ldi	r22, 0xA8	; 168
    15ba:	ce 01       	movw	r24, r28
    15bc:	0e 94 b0 0a 	call	0x1560	; 0x1560 <_ZN16Adafruit_SSD130615ssd1306_commandEh>
    15c0:	6f e3       	ldi	r22, 0x3F	; 63
    15c2:	ce 01       	movw	r24, r28
    15c4:	0e 94 b0 0a 	call	0x1560	; 0x1560 <_ZN16Adafruit_SSD130615ssd1306_commandEh>
    15c8:	63 ed       	ldi	r22, 0xD3	; 211
    15ca:	ce 01       	movw	r24, r28
    15cc:	0e 94 b0 0a 	call	0x1560	; 0x1560 <_ZN16Adafruit_SSD130615ssd1306_commandEh>
    15d0:	60 e0       	ldi	r22, 0x00	; 0
    15d2:	ce 01       	movw	r24, r28
    15d4:	0e 94 b0 0a 	call	0x1560	; 0x1560 <_ZN16Adafruit_SSD130615ssd1306_commandEh>
    15d8:	60 e4       	ldi	r22, 0x40	; 64
    15da:	ce 01       	movw	r24, r28
    15dc:	0e 94 b0 0a 	call	0x1560	; 0x1560 <_ZN16Adafruit_SSD130615ssd1306_commandEh>
    15e0:	6d e8       	ldi	r22, 0x8D	; 141
    15e2:	ce 01       	movw	r24, r28
    15e4:	0e 94 b0 0a 	call	0x1560	; 0x1560 <_ZN16Adafruit_SSD130615ssd1306_commandEh>
    15e8:	11 30       	cpi	r17, 0x01	; 1
    15ea:	11 f4       	brne	.+4      	; 0x15f0 <_ZN16Adafruit_SSD13065beginEhhb+0x6a>
    15ec:	60 e1       	ldi	r22, 0x10	; 16
    15ee:	01 c0       	rjmp	.+2      	; 0x15f2 <_ZN16Adafruit_SSD13065beginEhhb+0x6c>
    15f0:	64 e1       	ldi	r22, 0x14	; 20
    15f2:	ce 01       	movw	r24, r28
    15f4:	0e 94 b0 0a 	call	0x1560	; 0x1560 <_ZN16Adafruit_SSD130615ssd1306_commandEh>
    15f8:	60 e2       	ldi	r22, 0x20	; 32
    15fa:	ce 01       	movw	r24, r28
    15fc:	0e 94 b0 0a 	call	0x1560	; 0x1560 <_ZN16Adafruit_SSD130615ssd1306_commandEh>
    1600:	60 e0       	ldi	r22, 0x00	; 0
    1602:	ce 01       	movw	r24, r28
    1604:	0e 94 b0 0a 	call	0x1560	; 0x1560 <_ZN16Adafruit_SSD130615ssd1306_commandEh>
    1608:	61 ea       	ldi	r22, 0xA1	; 161
    160a:	ce 01       	movw	r24, r28
    160c:	0e 94 b0 0a 	call	0x1560	; 0x1560 <_ZN16Adafruit_SSD130615ssd1306_commandEh>
    1610:	68 ec       	ldi	r22, 0xC8	; 200
    1612:	ce 01       	movw	r24, r28
    1614:	0e 94 b0 0a 	call	0x1560	; 0x1560 <_ZN16Adafruit_SSD130615ssd1306_commandEh>
    1618:	6a ed       	ldi	r22, 0xDA	; 218
    161a:	ce 01       	movw	r24, r28
    161c:	0e 94 b0 0a 	call	0x1560	; 0x1560 <_ZN16Adafruit_SSD130615ssd1306_commandEh>
    1620:	62 e1       	ldi	r22, 0x12	; 18
    1622:	ce 01       	movw	r24, r28
    1624:	0e 94 b0 0a 	call	0x1560	; 0x1560 <_ZN16Adafruit_SSD130615ssd1306_commandEh>
    1628:	61 e8       	ldi	r22, 0x81	; 129
    162a:	ce 01       	movw	r24, r28
    162c:	0e 94 b0 0a 	call	0x1560	; 0x1560 <_ZN16Adafruit_SSD130615ssd1306_commandEh>
    1630:	11 30       	cpi	r17, 0x01	; 1
    1632:	11 f4       	brne	.+4      	; 0x1638 <_ZN16Adafruit_SSD13065beginEhhb+0xb2>
    1634:	6f e9       	ldi	r22, 0x9F	; 159
    1636:	01 c0       	rjmp	.+2      	; 0x163a <_ZN16Adafruit_SSD13065beginEhhb+0xb4>
    1638:	6f ec       	ldi	r22, 0xCF	; 207
    163a:	ce 01       	movw	r24, r28
    163c:	0e 94 b0 0a 	call	0x1560	; 0x1560 <_ZN16Adafruit_SSD130615ssd1306_commandEh>
    1640:	69 ed       	ldi	r22, 0xD9	; 217
    1642:	ce 01       	movw	r24, r28
    1644:	0e 94 b0 0a 	call	0x1560	; 0x1560 <_ZN16Adafruit_SSD130615ssd1306_commandEh>
    1648:	11 30       	cpi	r17, 0x01	; 1
    164a:	11 f4       	brne	.+4      	; 0x1650 <_ZN16Adafruit_SSD13065beginEhhb+0xca>
    164c:	62 e2       	ldi	r22, 0x22	; 34
    164e:	01 c0       	rjmp	.+2      	; 0x1652 <_ZN16Adafruit_SSD13065beginEhhb+0xcc>
    1650:	61 ef       	ldi	r22, 0xF1	; 241
    1652:	ce 01       	movw	r24, r28
    1654:	0e 94 b0 0a 	call	0x1560	; 0x1560 <_ZN16Adafruit_SSD130615ssd1306_commandEh>
    1658:	6b ed       	ldi	r22, 0xDB	; 219
    165a:	ce 01       	movw	r24, r28
    165c:	0e 94 b0 0a 	call	0x1560	; 0x1560 <_ZN16Adafruit_SSD130615ssd1306_commandEh>
    1660:	60 e4       	ldi	r22, 0x40	; 64
    1662:	ce 01       	movw	r24, r28
    1664:	0e 94 b0 0a 	call	0x1560	; 0x1560 <_ZN16Adafruit_SSD130615ssd1306_commandEh>
    1668:	64 ea       	ldi	r22, 0xA4	; 164
    166a:	ce 01       	movw	r24, r28
    166c:	0e 94 b0 0a 	call	0x1560	; 0x1560 <_ZN16Adafruit_SSD130615ssd1306_commandEh>
    1670:	66 ea       	ldi	r22, 0xA6	; 166
    1672:	ce 01       	movw	r24, r28
    1674:	0e 94 b0 0a 	call	0x1560	; 0x1560 <_ZN16Adafruit_SSD130615ssd1306_commandEh>
    1678:	6f ea       	ldi	r22, 0xAF	; 175
    167a:	ce 01       	movw	r24, r28
    167c:	df 91       	pop	r29
    167e:	cf 91       	pop	r28
    1680:	1f 91       	pop	r17
    1682:	0c 94 b0 0a 	jmp	0x1560	; 0x1560 <_ZN16Adafruit_SSD130615ssd1306_commandEh>

00001686 <_ZN16Adafruit_SSD130613invertDisplayEh>:
    1686:	66 23       	and	r22, r22
    1688:	11 f0       	breq	.+4      	; 0x168e <_ZN16Adafruit_SSD130613invertDisplayEh+0x8>
    168a:	67 ea       	ldi	r22, 0xA7	; 167
    168c:	01 c0       	rjmp	.+2      	; 0x1690 <_ZN16Adafruit_SSD130613invertDisplayEh+0xa>
    168e:	66 ea       	ldi	r22, 0xA6	; 166
    1690:	0c 94 b0 0a 	jmp	0x1560	; 0x1560 <_ZN16Adafruit_SSD130615ssd1306_commandEh>

00001694 <_ZN16Adafruit_SSD13063dimEh>:
    1694:	1f 93       	push	r17
    1696:	cf 93       	push	r28
    1698:	df 93       	push	r29
    169a:	ec 01       	movw	r28, r24
    169c:	61 11       	cpse	r22, r1
    169e:	05 c0       	rjmp	.+10     	; 0x16aa <_ZN16Adafruit_SSD13063dimEh+0x16>
    16a0:	88 8d       	ldd	r24, Y+24	; 0x18
    16a2:	81 30       	cpi	r24, 0x01	; 1
    16a4:	21 f0       	breq	.+8      	; 0x16ae <_ZN16Adafruit_SSD13063dimEh+0x1a>
    16a6:	1f ec       	ldi	r17, 0xCF	; 207
    16a8:	03 c0       	rjmp	.+6      	; 0x16b0 <_ZN16Adafruit_SSD13063dimEh+0x1c>
    16aa:	10 e0       	ldi	r17, 0x00	; 0
    16ac:	01 c0       	rjmp	.+2      	; 0x16b0 <_ZN16Adafruit_SSD13063dimEh+0x1c>
    16ae:	1f e9       	ldi	r17, 0x9F	; 159
    16b0:	61 e8       	ldi	r22, 0x81	; 129
    16b2:	ce 01       	movw	r24, r28
    16b4:	0e 94 b0 0a 	call	0x1560	; 0x1560 <_ZN16Adafruit_SSD130615ssd1306_commandEh>
    16b8:	61 2f       	mov	r22, r17
    16ba:	ce 01       	movw	r24, r28
    16bc:	df 91       	pop	r29
    16be:	cf 91       	pop	r28
    16c0:	1f 91       	pop	r17
    16c2:	0c 94 b0 0a 	jmp	0x1560	; 0x1560 <_ZN16Adafruit_SSD130615ssd1306_commandEh>

000016c6 <_ZN16Adafruit_SSD13067displayEv>:
    16c6:	ff 92       	push	r15
    16c8:	0f 93       	push	r16
    16ca:	1f 93       	push	r17
    16cc:	cf 93       	push	r28
    16ce:	df 93       	push	r29
    16d0:	ec 01       	movw	r28, r24
    16d2:	61 e2       	ldi	r22, 0x21	; 33
    16d4:	0e 94 b0 0a 	call	0x1560	; 0x1560 <_ZN16Adafruit_SSD130615ssd1306_commandEh>
    16d8:	60 e0       	ldi	r22, 0x00	; 0
    16da:	ce 01       	movw	r24, r28
    16dc:	0e 94 b0 0a 	call	0x1560	; 0x1560 <_ZN16Adafruit_SSD130615ssd1306_commandEh>
    16e0:	6f e7       	ldi	r22, 0x7F	; 127
    16e2:	ce 01       	movw	r24, r28
    16e4:	0e 94 b0 0a 	call	0x1560	; 0x1560 <_ZN16Adafruit_SSD130615ssd1306_commandEh>
    16e8:	62 e2       	ldi	r22, 0x22	; 34
    16ea:	ce 01       	movw	r24, r28
    16ec:	0e 94 b0 0a 	call	0x1560	; 0x1560 <_ZN16Adafruit_SSD130615ssd1306_commandEh>
    16f0:	60 e0       	ldi	r22, 0x00	; 0
    16f2:	ce 01       	movw	r24, r28
    16f4:	0e 94 b0 0a 	call	0x1560	; 0x1560 <_ZN16Adafruit_SSD130615ssd1306_commandEh>
    16f8:	67 e0       	ldi	r22, 0x07	; 7
    16fa:	ce 01       	movw	r24, r28
    16fc:	0e 94 b0 0a 	call	0x1560	; 0x1560 <_ZN16Adafruit_SSD130615ssd1306_commandEh>
    1700:	f0 90 b8 00 	lds	r15, 0x00B8	; 0x8000b8 <__TEXT_REGION_LENGTH__+0x7e00b8>
    1704:	8c e0       	ldi	r24, 0x0C	; 12
    1706:	80 93 b8 00 	sts	0x00B8, r24	; 0x8000b8 <__TEXT_REGION_LENGTH__+0x7e00b8>
    170a:	08 e1       	ldi	r16, 0x18	; 24
    170c:	11 e0       	ldi	r17, 0x01	; 1
    170e:	20 e1       	ldi	r18, 0x10	; 16
    1710:	a8 01       	movw	r20, r16
    1712:	60 e4       	ldi	r22, 0x40	; 64
    1714:	8f 89       	ldd	r24, Y+23	; 0x17
    1716:	0e 94 fe 0f 	call	0x1ffc	; 0x1ffc <_Z9i2c_writehhPhh>
    171a:	00 5f       	subi	r16, 0xF0	; 240
    171c:	1f 4f       	sbci	r17, 0xFF	; 255
    171e:	85 e0       	ldi	r24, 0x05	; 5
    1720:	08 31       	cpi	r16, 0x18	; 24
    1722:	18 07       	cpc	r17, r24
    1724:	a1 f7       	brne	.-24     	; 0x170e <_ZN16Adafruit_SSD13067displayEv+0x48>
    1726:	f0 92 b8 00 	sts	0x00B8, r15	; 0x8000b8 <__TEXT_REGION_LENGTH__+0x7e00b8>
    172a:	df 91       	pop	r29
    172c:	cf 91       	pop	r28
    172e:	1f 91       	pop	r17
    1730:	0f 91       	pop	r16
    1732:	ff 90       	pop	r15
    1734:	08 95       	ret

00001736 <_ZN16Adafruit_SSD130612clearDisplayEv>:
    1736:	80 e0       	ldi	r24, 0x00	; 0
    1738:	94 e0       	ldi	r25, 0x04	; 4
    173a:	e8 e1       	ldi	r30, 0x18	; 24
    173c:	f1 e0       	ldi	r31, 0x01	; 1
    173e:	df 01       	movw	r26, r30
    1740:	9c 01       	movw	r18, r24
    1742:	1d 92       	st	X+, r1
    1744:	21 50       	subi	r18, 0x01	; 1
    1746:	30 40       	sbci	r19, 0x00	; 0
    1748:	e1 f7       	brne	.-8      	; 0x1742 <_ZN16Adafruit_SSD130612clearDisplayEv+0xc>
    174a:	08 95       	ret

0000174c <_ZN9fifo_byte4initEi>:
    174c:	0f 93       	push	r16
    174e:	1f 93       	push	r17
    1750:	cf 93       	push	r28
    1752:	df 93       	push	r29
    1754:	ec 01       	movw	r28, r24
    1756:	16 2f       	mov	r17, r22
    1758:	07 2f       	mov	r16, r23
    175a:	81 e0       	ldi	r24, 0x01	; 1
    175c:	90 e0       	ldi	r25, 0x00	; 0
    175e:	0e 94 be 1b 	call	0x377c	; 0x377c <_Znwj>
    1762:	fc 01       	movw	r30, r24
    1764:	10 83       	st	Z, r17
    1766:	99 87       	std	Y+9, r25	; 0x09
    1768:	88 87       	std	Y+8, r24	; 0x08
    176a:	1e 83       	std	Y+6, r17	; 0x06
    176c:	0f 83       	std	Y+7, r16	; 0x07
    176e:	8f ef       	ldi	r24, 0xFF	; 255
    1770:	9f ef       	ldi	r25, 0xFF	; 255
    1772:	9d 83       	std	Y+5, r25	; 0x05
    1774:	8c 83       	std	Y+4, r24	; 0x04
    1776:	9b 83       	std	Y+3, r25	; 0x03
    1778:	8a 83       	std	Y+2, r24	; 0x02
    177a:	df 91       	pop	r29
    177c:	cf 91       	pop	r28
    177e:	1f 91       	pop	r17
    1780:	0f 91       	pop	r16
    1782:	08 95       	ret

00001784 <_ZN4fifo7isEmptyEv>:
    1784:	fc 01       	movw	r30, r24
    1786:	82 81       	ldd	r24, Z+2	; 0x02
    1788:	93 81       	ldd	r25, Z+3	; 0x03
    178a:	01 96       	adiw	r24, 0x01	; 1
    178c:	31 f4       	brne	.+12     	; 0x179a <_ZN4fifo7isEmptyEv+0x16>
    178e:	81 e0       	ldi	r24, 0x01	; 1
    1790:	24 81       	ldd	r18, Z+4	; 0x04
    1792:	35 81       	ldd	r19, Z+5	; 0x05
    1794:	2f 3f       	cpi	r18, 0xFF	; 255
    1796:	3f 4f       	sbci	r19, 0xFF	; 255
    1798:	09 f0       	breq	.+2      	; 0x179c <_ZN4fifo7isEmptyEv+0x18>
    179a:	80 e0       	ldi	r24, 0x00	; 0
    179c:	08 95       	ret

0000179e <_ZN9fifo_byteC1Ei>:
    179e:	26 e5       	ldi	r18, 0x56	; 86
    17a0:	35 e0       	ldi	r19, 0x05	; 5
    17a2:	fc 01       	movw	r30, r24
    17a4:	31 83       	std	Z+1, r19	; 0x01
    17a6:	20 83       	st	Z, r18
    17a8:	0c 94 a6 0b 	jmp	0x174c	; 0x174c <_ZN9fifo_byte4initEi>

000017ac <_ZN9fifo_byte5dequeEv>:
    17ac:	fc 01       	movw	r30, r24
    17ae:	22 81       	ldd	r18, Z+2	; 0x02
    17b0:	33 81       	ldd	r19, Z+3	; 0x03
    17b2:	44 81       	ldd	r20, Z+4	; 0x04
    17b4:	55 81       	ldd	r21, Z+5	; 0x05
    17b6:	2f 3f       	cpi	r18, 0xFF	; 255
    17b8:	8f ef       	ldi	r24, 0xFF	; 255
    17ba:	38 07       	cpc	r19, r24
    17bc:	21 f4       	brne	.+8      	; 0x17c6 <_ZN9fifo_byte5dequeEv+0x1a>
    17be:	4f 3f       	cpi	r20, 0xFF	; 255
    17c0:	8f ef       	ldi	r24, 0xFF	; 255
    17c2:	58 07       	cpc	r21, r24
    17c4:	19 f1       	breq	.+70     	; 0x180c <_ZN9fifo_byte5dequeEv+0x60>
    17c6:	80 85       	ldd	r24, Z+8	; 0x08
    17c8:	91 85       	ldd	r25, Z+9	; 0x09
    17ca:	dc 01       	movw	r26, r24
    17cc:	a2 0f       	add	r26, r18
    17ce:	b3 1f       	adc	r27, r19
    17d0:	24 17       	cp	r18, r20
    17d2:	35 07       	cpc	r19, r21
    17d4:	31 f4       	brne	.+12     	; 0x17e2 <_ZN9fifo_byte5dequeEv+0x36>
    17d6:	9c 91       	ld	r25, X
    17d8:	2f ef       	ldi	r18, 0xFF	; 255
    17da:	3f ef       	ldi	r19, 0xFF	; 255
    17dc:	35 83       	std	Z+5, r19	; 0x05
    17de:	24 83       	std	Z+4, r18	; 0x04
    17e0:	12 c0       	rjmp	.+36     	; 0x1806 <_ZN9fifo_byte5dequeEv+0x5a>
    17e2:	42 17       	cp	r20, r18
    17e4:	53 07       	cpc	r21, r19
    17e6:	64 f4       	brge	.+24     	; 0x1800 <_ZN9fifo_byte5dequeEv+0x54>
    17e8:	46 81       	ldd	r20, Z+6	; 0x06
    17ea:	57 81       	ldd	r21, Z+7	; 0x07
    17ec:	41 50       	subi	r20, 0x01	; 1
    17ee:	51 09       	sbc	r21, r1
    17f0:	24 17       	cp	r18, r20
    17f2:	35 07       	cpc	r19, r21
    17f4:	29 f4       	brne	.+10     	; 0x1800 <_ZN9fifo_byte5dequeEv+0x54>
    17f6:	9c 91       	ld	r25, X
    17f8:	13 82       	std	Z+3, r1	; 0x03
    17fa:	12 82       	std	Z+2, r1	; 0x02
    17fc:	89 2f       	mov	r24, r25
    17fe:	08 95       	ret
    1800:	9c 91       	ld	r25, X
    1802:	2f 5f       	subi	r18, 0xFF	; 255
    1804:	3f 4f       	sbci	r19, 0xFF	; 255
    1806:	33 83       	std	Z+3, r19	; 0x03
    1808:	22 83       	std	Z+2, r18	; 0x02
    180a:	f8 cf       	rjmp	.-16     	; 0x17fc <_ZN9fifo_byte5dequeEv+0x50>
    180c:	80 e0       	ldi	r24, 0x00	; 0
    180e:	08 95       	ret

00001810 <_ZN9fifo_byte5enqueEh>:
    1810:	fc 01       	movw	r30, r24
    1812:	22 81       	ldd	r18, Z+2	; 0x02
    1814:	33 81       	ldd	r19, Z+3	; 0x03
    1816:	84 81       	ldd	r24, Z+4	; 0x04
    1818:	95 81       	ldd	r25, Z+5	; 0x05
    181a:	21 15       	cp	r18, r1
    181c:	31 05       	cpc	r19, r1
    181e:	39 f4       	brne	.+14     	; 0x182e <_ZN9fifo_byte5enqueEh+0x1e>
    1820:	46 81       	ldd	r20, Z+6	; 0x06
    1822:	57 81       	ldd	r21, Z+7	; 0x07
    1824:	41 50       	subi	r20, 0x01	; 1
    1826:	51 09       	sbc	r21, r1
    1828:	84 17       	cp	r24, r20
    182a:	95 07       	cpc	r25, r21
    182c:	19 f1       	breq	.+70     	; 0x1874 <_ZN9fifo_byte5enqueEh+0x64>
    182e:	a9 01       	movw	r20, r18
    1830:	41 50       	subi	r20, 0x01	; 1
    1832:	51 09       	sbc	r21, r1
    1834:	84 17       	cp	r24, r20
    1836:	95 07       	cpc	r25, r21
    1838:	e9 f0       	breq	.+58     	; 0x1874 <_ZN9fifo_byte5enqueEh+0x64>
    183a:	46 81       	ldd	r20, Z+6	; 0x06
    183c:	57 81       	ldd	r21, Z+7	; 0x07
    183e:	41 50       	subi	r20, 0x01	; 1
    1840:	51 09       	sbc	r21, r1
    1842:	84 17       	cp	r24, r20
    1844:	95 07       	cpc	r25, r21
    1846:	31 f4       	brne	.+12     	; 0x1854 <_ZN9fifo_byte5enqueEh+0x44>
    1848:	12 16       	cp	r1, r18
    184a:	13 06       	cpc	r1, r19
    184c:	1c f4       	brge	.+6      	; 0x1854 <_ZN9fifo_byte5enqueEh+0x44>
    184e:	15 82       	std	Z+5, r1	; 0x05
    1850:	14 82       	std	Z+4, r1	; 0x04
    1852:	03 c0       	rjmp	.+6      	; 0x185a <_ZN9fifo_byte5enqueEh+0x4a>
    1854:	01 96       	adiw	r24, 0x01	; 1
    1856:	95 83       	std	Z+5, r25	; 0x05
    1858:	84 83       	std	Z+4, r24	; 0x04
    185a:	a0 85       	ldd	r26, Z+8	; 0x08
    185c:	b1 85       	ldd	r27, Z+9	; 0x09
    185e:	84 81       	ldd	r24, Z+4	; 0x04
    1860:	95 81       	ldd	r25, Z+5	; 0x05
    1862:	a8 0f       	add	r26, r24
    1864:	b9 1f       	adc	r27, r25
    1866:	6c 93       	st	X, r22
    1868:	82 81       	ldd	r24, Z+2	; 0x02
    186a:	93 81       	ldd	r25, Z+3	; 0x03
    186c:	01 96       	adiw	r24, 0x01	; 1
    186e:	11 f4       	brne	.+4      	; 0x1874 <_ZN9fifo_byte5enqueEh+0x64>
    1870:	13 82       	std	Z+3, r1	; 0x03
    1872:	12 82       	std	Z+2, r1	; 0x02
    1874:	08 95       	ret

00001876 <_ZN9fifo_byteD1Ev>:
    1876:	08 95       	ret

00001878 <_ZN4GPIO11parsePinMapEh>:
    1878:	fc 01       	movw	r30, r24
    187a:	68 30       	cpi	r22, 0x08	; 8
    187c:	18 f4       	brcc	.+6      	; 0x1884 <_ZN4GPIO11parsePinMapEh+0xc>
    187e:	8b e2       	ldi	r24, 0x2B	; 43
    1880:	90 e0       	ldi	r25, 0x00	; 0
    1882:	0f c0       	rjmp	.+30     	; 0x18a2 <_ZN4GPIO11parsePinMapEh+0x2a>
    1884:	88 ef       	ldi	r24, 0xF8	; 248
    1886:	86 0f       	add	r24, r22
    1888:	86 30       	cpi	r24, 0x06	; 6
    188a:	30 f4       	brcc	.+12     	; 0x1898 <_ZN4GPIO11parsePinMapEh+0x20>
    188c:	25 e2       	ldi	r18, 0x25	; 37
    188e:	30 e0       	ldi	r19, 0x00	; 0
    1890:	31 83       	std	Z+1, r19	; 0x01
    1892:	20 83       	st	Z, r18
    1894:	82 83       	std	Z+2, r24	; 0x02
    1896:	08 95       	ret
    1898:	6e 50       	subi	r22, 0x0E	; 14
    189a:	66 30       	cpi	r22, 0x06	; 6
    189c:	28 f4       	brcc	.+10     	; 0x18a8 <_ZN4GPIO11parsePinMapEh+0x30>
    189e:	88 e2       	ldi	r24, 0x28	; 40
    18a0:	90 e0       	ldi	r25, 0x00	; 0
    18a2:	91 83       	std	Z+1, r25	; 0x01
    18a4:	80 83       	st	Z, r24
    18a6:	62 83       	std	Z+2, r22	; 0x02
    18a8:	08 95       	ret

000018aa <_ZN4GPIO9setOutPutEv>:
    18aa:	dc 01       	movw	r26, r24
    18ac:	ed 91       	ld	r30, X+
    18ae:	fc 91       	ld	r31, X
    18b0:	11 97       	sbiw	r26, 0x01	; 1
    18b2:	42 91       	ld	r20, -Z
    18b4:	21 e0       	ldi	r18, 0x01	; 1
    18b6:	30 e0       	ldi	r19, 0x00	; 0
    18b8:	c9 01       	movw	r24, r18
    18ba:	12 96       	adiw	r26, 0x02	; 2
    18bc:	0c 90       	ld	r0, X
    18be:	02 c0       	rjmp	.+4      	; 0x18c4 <_ZN4GPIO9setOutPutEv+0x1a>
    18c0:	88 0f       	add	r24, r24
    18c2:	99 1f       	adc	r25, r25
    18c4:	0a 94       	dec	r0
    18c6:	e2 f7       	brpl	.-8      	; 0x18c0 <_ZN4GPIO9setOutPutEv+0x16>
    18c8:	84 2b       	or	r24, r20
    18ca:	80 83       	st	Z, r24
    18cc:	08 95       	ret

000018ce <_ZN4GPIO4HighEv>:
    18ce:	dc 01       	movw	r26, r24
    18d0:	ed 91       	ld	r30, X+
    18d2:	fc 91       	ld	r31, X
    18d4:	11 97       	sbiw	r26, 0x01	; 1
    18d6:	40 81       	ld	r20, Z
    18d8:	21 e0       	ldi	r18, 0x01	; 1
    18da:	30 e0       	ldi	r19, 0x00	; 0
    18dc:	12 96       	adiw	r26, 0x02	; 2
    18de:	0c 90       	ld	r0, X
    18e0:	02 c0       	rjmp	.+4      	; 0x18e6 <_ZN4GPIO4HighEv+0x18>
    18e2:	22 0f       	add	r18, r18
    18e4:	33 1f       	adc	r19, r19
    18e6:	0a 94       	dec	r0
    18e8:	e2 f7       	brpl	.-8      	; 0x18e2 <_ZN4GPIO4HighEv+0x14>
    18ea:	24 2b       	or	r18, r20
    18ec:	20 83       	st	Z, r18
    18ee:	0c 94 55 0c 	jmp	0x18aa	; 0x18aa <_ZN4GPIO9setOutPutEv>

000018f2 <_ZN4GPIO3LowEv>:
    18f2:	dc 01       	movw	r26, r24
    18f4:	ed 91       	ld	r30, X+
    18f6:	fc 91       	ld	r31, X
    18f8:	11 97       	sbiw	r26, 0x01	; 1
    18fa:	40 81       	ld	r20, Z
    18fc:	21 e0       	ldi	r18, 0x01	; 1
    18fe:	30 e0       	ldi	r19, 0x00	; 0
    1900:	12 96       	adiw	r26, 0x02	; 2
    1902:	0c 90       	ld	r0, X
    1904:	02 c0       	rjmp	.+4      	; 0x190a <_ZN4GPIO3LowEv+0x18>
    1906:	22 0f       	add	r18, r18
    1908:	33 1f       	adc	r19, r19
    190a:	0a 94       	dec	r0
    190c:	e2 f7       	brpl	.-8      	; 0x1906 <_ZN4GPIO3LowEv+0x14>
    190e:	20 95       	com	r18
    1910:	24 23       	and	r18, r20
    1912:	20 83       	st	Z, r18
    1914:	0c 94 55 0c 	jmp	0x18aa	; 0x18aa <_ZN4GPIO9setOutPutEv>

00001918 <_ZN4GPIO6toggleEv>:
    1918:	cf 93       	push	r28
    191a:	df 93       	push	r29
    191c:	ec 01       	movw	r28, r24
    191e:	0e 94 55 0c 	call	0x18aa	; 0x18aa <_ZN4GPIO9setOutPutEv>
    1922:	e8 81       	ld	r30, Y
    1924:	f9 81       	ldd	r31, Y+1	; 0x01
    1926:	20 81       	ld	r18, Z
    1928:	81 e0       	ldi	r24, 0x01	; 1
    192a:	90 e0       	ldi	r25, 0x00	; 0
    192c:	0a 80       	ldd	r0, Y+2	; 0x02
    192e:	02 c0       	rjmp	.+4      	; 0x1934 <_ZN4GPIO6toggleEv+0x1c>
    1930:	88 0f       	add	r24, r24
    1932:	99 1f       	adc	r25, r25
    1934:	0a 94       	dec	r0
    1936:	e2 f7       	brpl	.-8      	; 0x1930 <_ZN4GPIO6toggleEv+0x18>
    1938:	82 27       	eor	r24, r18
    193a:	80 83       	st	Z, r24
    193c:	df 91       	pop	r29
    193e:	cf 91       	pop	r28
    1940:	08 95       	ret

00001942 <_ZN4GPIO8setInputEv>:
    1942:	dc 01       	movw	r26, r24
    1944:	ed 91       	ld	r30, X+
    1946:	fc 91       	ld	r31, X
    1948:	11 97       	sbiw	r26, 0x01	; 1
    194a:	42 91       	ld	r20, -Z
    194c:	21 e0       	ldi	r18, 0x01	; 1
    194e:	30 e0       	ldi	r19, 0x00	; 0
    1950:	b9 01       	movw	r22, r18
    1952:	12 96       	adiw	r26, 0x02	; 2
    1954:	0c 90       	ld	r0, X
    1956:	02 c0       	rjmp	.+4      	; 0x195c <_ZN4GPIO8setInputEv+0x1a>
    1958:	66 0f       	add	r22, r22
    195a:	77 1f       	adc	r23, r23
    195c:	0a 94       	dec	r0
    195e:	e2 f7       	brpl	.-8      	; 0x1958 <_ZN4GPIO8setInputEv+0x16>
    1960:	cb 01       	movw	r24, r22
    1962:	80 95       	com	r24
    1964:	84 23       	and	r24, r20
    1966:	80 83       	st	Z, r24
    1968:	08 95       	ret

0000196a <_ZN4GPIO16setInputPullDownEv>:
    196a:	fc 01       	movw	r30, r24
    196c:	a0 81       	ld	r26, Z
    196e:	b1 81       	ldd	r27, Z+1	; 0x01
    1970:	9e 91       	ld	r25, -X
    1972:	21 e0       	ldi	r18, 0x01	; 1
    1974:	30 e0       	ldi	r19, 0x00	; 0
    1976:	a9 01       	movw	r20, r18
    1978:	02 80       	ldd	r0, Z+2	; 0x02
    197a:	02 c0       	rjmp	.+4      	; 0x1980 <_ZN4GPIO16setInputPullDownEv+0x16>
    197c:	44 0f       	add	r20, r20
    197e:	55 1f       	adc	r21, r21
    1980:	0a 94       	dec	r0
    1982:	e2 f7       	brpl	.-8      	; 0x197c <_ZN4GPIO16setInputPullDownEv+0x12>
    1984:	84 2f       	mov	r24, r20
    1986:	80 95       	com	r24
    1988:	89 23       	and	r24, r25
    198a:	8c 93       	st	X, r24
    198c:	a0 81       	ld	r26, Z
    198e:	b1 81       	ldd	r27, Z+1	; 0x01
    1990:	8c 91       	ld	r24, X
    1992:	02 80       	ldd	r0, Z+2	; 0x02
    1994:	02 c0       	rjmp	.+4      	; 0x199a <_ZN4GPIO16setInputPullDownEv+0x30>
    1996:	22 0f       	add	r18, r18
    1998:	33 1f       	adc	r19, r19
    199a:	0a 94       	dec	r0
    199c:	e2 f7       	brpl	.-8      	; 0x1996 <_ZN4GPIO16setInputPullDownEv+0x2c>
    199e:	20 95       	com	r18
    19a0:	28 23       	and	r18, r24
    19a2:	2c 93       	st	X, r18
    19a4:	08 95       	ret

000019a6 <_ZN4GPIO14setInputPullUpEv>:
    19a6:	fc 01       	movw	r30, r24
    19a8:	a0 81       	ld	r26, Z
    19aa:	b1 81       	ldd	r27, Z+1	; 0x01
    19ac:	9e 91       	ld	r25, -X
    19ae:	21 e0       	ldi	r18, 0x01	; 1
    19b0:	30 e0       	ldi	r19, 0x00	; 0
    19b2:	a9 01       	movw	r20, r18
    19b4:	02 80       	ldd	r0, Z+2	; 0x02
    19b6:	02 c0       	rjmp	.+4      	; 0x19bc <_ZN4GPIO14setInputPullUpEv+0x16>
    19b8:	44 0f       	add	r20, r20
    19ba:	55 1f       	adc	r21, r21
    19bc:	0a 94       	dec	r0
    19be:	e2 f7       	brpl	.-8      	; 0x19b8 <_ZN4GPIO14setInputPullUpEv+0x12>
    19c0:	84 2f       	mov	r24, r20
    19c2:	80 95       	com	r24
    19c4:	89 23       	and	r24, r25
    19c6:	8c 93       	st	X, r24
    19c8:	a0 81       	ld	r26, Z
    19ca:	b1 81       	ldd	r27, Z+1	; 0x01
    19cc:	8c 91       	ld	r24, X
    19ce:	02 80       	ldd	r0, Z+2	; 0x02
    19d0:	02 c0       	rjmp	.+4      	; 0x19d6 <_ZN4GPIO14setInputPullUpEv+0x30>
    19d2:	22 0f       	add	r18, r18
    19d4:	33 1f       	adc	r19, r19
    19d6:	0a 94       	dec	r0
    19d8:	e2 f7       	brpl	.-8      	; 0x19d2 <_ZN4GPIO14setInputPullUpEv+0x2c>
    19da:	28 2b       	or	r18, r24
    19dc:	2c 93       	st	X, r18
    19de:	08 95       	ret

000019e0 <_ZN4GPIO8getStateEv>:
    19e0:	dc 01       	movw	r26, r24
    19e2:	ed 91       	ld	r30, X+
    19e4:	fc 91       	ld	r31, X
    19e6:	11 97       	sbiw	r26, 0x01	; 1
    19e8:	32 97       	sbiw	r30, 0x02	; 2
    19ea:	20 81       	ld	r18, Z
    19ec:	30 e0       	ldi	r19, 0x00	; 0
    19ee:	f9 01       	movw	r30, r18
    19f0:	12 96       	adiw	r26, 0x02	; 2
    19f2:	0c 90       	ld	r0, X
    19f4:	02 c0       	rjmp	.+4      	; 0x19fa <_ZN4GPIO8getStateEv+0x1a>
    19f6:	f5 95       	asr	r31
    19f8:	e7 95       	ror	r30
    19fa:	0a 94       	dec	r0
    19fc:	e2 f7       	brpl	.-8      	; 0x19f6 <_ZN4GPIO8getStateEv+0x16>
    19fe:	cf 01       	movw	r24, r30
    1a00:	81 70       	andi	r24, 0x01	; 1
    1a02:	08 95       	ret

00001a04 <_ZN4GPIOC1Eh>:
    1a04:	0c 94 3c 0c 	jmp	0x1878	; 0x1878 <_ZN4GPIO11parsePinMapEh>

00001a08 <_ZN14HardwareSerial9availableEv>:
    1a08:	fc 01       	movw	r30, r24
    1a0a:	24 85       	ldd	r18, Z+12	; 0x0c
    1a0c:	35 85       	ldd	r19, Z+13	; 0x0d
    1a0e:	f9 01       	movw	r30, r18
    1a10:	e0 5c       	subi	r30, 0xC0	; 192
    1a12:	ff 4f       	sbci	r31, 0xFF	; 255
    1a14:	80 81       	ld	r24, Z
    1a16:	91 81       	ldd	r25, Z+1	; 0x01
    1a18:	32 96       	adiw	r30, 0x02	; 2
    1a1a:	20 81       	ld	r18, Z
    1a1c:	31 81       	ldd	r19, Z+1	; 0x01
    1a1e:	82 1b       	sub	r24, r18
    1a20:	93 0b       	sbc	r25, r19
    1a22:	8f 73       	andi	r24, 0x3F	; 63
    1a24:	99 27       	eor	r25, r25
    1a26:	08 95       	ret

00001a28 <_ZN14HardwareSerial4peekEv>:
    1a28:	dc 01       	movw	r26, r24
    1a2a:	1c 96       	adiw	r26, 0x0c	; 12
    1a2c:	ed 91       	ld	r30, X+
    1a2e:	fc 91       	ld	r31, X
    1a30:	1d 97       	sbiw	r26, 0x0d	; 13
    1a32:	df 01       	movw	r26, r30
    1a34:	a0 5c       	subi	r26, 0xC0	; 192
    1a36:	bf 4f       	sbci	r27, 0xFF	; 255
    1a38:	2d 91       	ld	r18, X+
    1a3a:	3c 91       	ld	r19, X
    1a3c:	11 97       	sbiw	r26, 0x01	; 1
    1a3e:	12 96       	adiw	r26, 0x02	; 2
    1a40:	8d 91       	ld	r24, X+
    1a42:	9c 91       	ld	r25, X
    1a44:	11 97       	sbiw	r26, 0x01	; 1
    1a46:	28 17       	cp	r18, r24
    1a48:	39 07       	cpc	r19, r25
    1a4a:	39 f0       	breq	.+14     	; 0x1a5a <_ZN14HardwareSerial4peekEv+0x32>
    1a4c:	8d 91       	ld	r24, X+
    1a4e:	9c 91       	ld	r25, X
    1a50:	e8 0f       	add	r30, r24
    1a52:	f9 1f       	adc	r31, r25
    1a54:	80 81       	ld	r24, Z
    1a56:	90 e0       	ldi	r25, 0x00	; 0
    1a58:	08 95       	ret
    1a5a:	8f ef       	ldi	r24, 0xFF	; 255
    1a5c:	9f ef       	ldi	r25, 0xFF	; 255
    1a5e:	08 95       	ret

00001a60 <_ZN14HardwareSerial4readEv>:
    1a60:	fc 01       	movw	r30, r24
    1a62:	a4 85       	ldd	r26, Z+12	; 0x0c
    1a64:	b5 85       	ldd	r27, Z+13	; 0x0d
    1a66:	fd 01       	movw	r30, r26
    1a68:	e0 5c       	subi	r30, 0xC0	; 192
    1a6a:	ff 4f       	sbci	r31, 0xFF	; 255
    1a6c:	20 81       	ld	r18, Z
    1a6e:	31 81       	ldd	r19, Z+1	; 0x01
    1a70:	32 96       	adiw	r30, 0x02	; 2
    1a72:	80 81       	ld	r24, Z
    1a74:	91 81       	ldd	r25, Z+1	; 0x01
    1a76:	28 17       	cp	r18, r24
    1a78:	39 07       	cpc	r19, r25
    1a7a:	79 f0       	breq	.+30     	; 0x1a9a <_ZN14HardwareSerial4readEv+0x3a>
    1a7c:	80 81       	ld	r24, Z
    1a7e:	91 81       	ldd	r25, Z+1	; 0x01
    1a80:	a8 0f       	add	r26, r24
    1a82:	b9 1f       	adc	r27, r25
    1a84:	8c 91       	ld	r24, X
    1a86:	20 81       	ld	r18, Z
    1a88:	31 81       	ldd	r19, Z+1	; 0x01
    1a8a:	2f 5f       	subi	r18, 0xFF	; 255
    1a8c:	3f 4f       	sbci	r19, 0xFF	; 255
    1a8e:	2f 73       	andi	r18, 0x3F	; 63
    1a90:	33 27       	eor	r19, r19
    1a92:	31 83       	std	Z+1, r19	; 0x01
    1a94:	20 83       	st	Z, r18
    1a96:	90 e0       	ldi	r25, 0x00	; 0
    1a98:	08 95       	ret
    1a9a:	8f ef       	ldi	r24, 0xFF	; 255
    1a9c:	9f ef       	ldi	r25, 0xFF	; 255
    1a9e:	08 95       	ret

00001aa0 <_ZN14HardwareSerial5flushEv>:
    1aa0:	fc 01       	movw	r30, r24
    1aa2:	86 85       	ldd	r24, Z+14	; 0x0e
    1aa4:	97 85       	ldd	r25, Z+15	; 0x0f
    1aa6:	fc 01       	movw	r30, r24
    1aa8:	e0 5c       	subi	r30, 0xC0	; 192
    1aaa:	ff 4f       	sbci	r31, 0xFF	; 255
    1aac:	dc 01       	movw	r26, r24
    1aae:	ae 5b       	subi	r26, 0xBE	; 190
    1ab0:	bf 4f       	sbci	r27, 0xFF	; 255
    1ab2:	40 81       	ld	r20, Z
    1ab4:	51 81       	ldd	r21, Z+1	; 0x01
    1ab6:	2d 91       	ld	r18, X+
    1ab8:	3c 91       	ld	r19, X
    1aba:	11 97       	sbiw	r26, 0x01	; 1
    1abc:	42 17       	cp	r20, r18
    1abe:	53 07       	cpc	r21, r19
    1ac0:	c1 f7       	brne	.-16     	; 0x1ab2 <_ZN14HardwareSerial5flushEv+0x12>
    1ac2:	08 95       	ret

00001ac4 <_ZN14HardwareSerial5writeEh>:
    1ac4:	0f 93       	push	r16
    1ac6:	1f 93       	push	r17
    1ac8:	cf 93       	push	r28
    1aca:	df 93       	push	r29
    1acc:	dc 01       	movw	r26, r24
    1ace:	1e 96       	adiw	r26, 0x0e	; 14
    1ad0:	ed 91       	ld	r30, X+
    1ad2:	fc 91       	ld	r31, X
    1ad4:	1f 97       	sbiw	r26, 0x0f	; 15
    1ad6:	8f 01       	movw	r16, r30
    1ad8:	00 5c       	subi	r16, 0xC0	; 192
    1ada:	1f 4f       	sbci	r17, 0xFF	; 255
    1adc:	e8 01       	movw	r28, r16
    1ade:	28 81       	ld	r18, Y
    1ae0:	39 81       	ldd	r19, Y+1	; 0x01
    1ae2:	2f 5f       	subi	r18, 0xFF	; 255
    1ae4:	3f 4f       	sbci	r19, 0xFF	; 255
    1ae6:	2f 73       	andi	r18, 0x3F	; 63
    1ae8:	33 27       	eor	r19, r19
    1aea:	af 01       	movw	r20, r30
    1aec:	4e 5b       	subi	r20, 0xBE	; 190
    1aee:	5f 4f       	sbci	r21, 0xFF	; 255
    1af0:	ea 01       	movw	r28, r20
    1af2:	88 81       	ld	r24, Y
    1af4:	99 81       	ldd	r25, Y+1	; 0x01
    1af6:	82 17       	cp	r24, r18
    1af8:	93 07       	cpc	r25, r19
    1afa:	d1 f3       	breq	.-12     	; 0x1af0 <_ZN14HardwareSerial5writeEh+0x2c>
    1afc:	e8 01       	movw	r28, r16
    1afe:	48 81       	ld	r20, Y
    1b00:	59 81       	ldd	r21, Y+1	; 0x01
    1b02:	e4 0f       	add	r30, r20
    1b04:	f5 1f       	adc	r31, r21
    1b06:	60 83       	st	Z, r22
    1b08:	1e 96       	adiw	r26, 0x0e	; 14
    1b0a:	ed 91       	ld	r30, X+
    1b0c:	fc 91       	ld	r31, X
    1b0e:	1f 97       	sbiw	r26, 0x0f	; 15
    1b10:	e0 5c       	subi	r30, 0xC0	; 192
    1b12:	ff 4f       	sbci	r31, 0xFF	; 255
    1b14:	31 83       	std	Z+1, r19	; 0x01
    1b16:	20 83       	st	Z, r18
    1b18:	56 96       	adiw	r26, 0x16	; 22
    1b1a:	ed 91       	ld	r30, X+
    1b1c:	fc 91       	ld	r31, X
    1b1e:	57 97       	sbiw	r26, 0x17	; 23
    1b20:	40 81       	ld	r20, Z
    1b22:	21 e0       	ldi	r18, 0x01	; 1
    1b24:	30 e0       	ldi	r19, 0x00	; 0
    1b26:	c9 01       	movw	r24, r18
    1b28:	5d 96       	adiw	r26, 0x1d	; 29
    1b2a:	0c 90       	ld	r0, X
    1b2c:	02 c0       	rjmp	.+4      	; 0x1b32 <_ZN14HardwareSerial5writeEh+0x6e>
    1b2e:	88 0f       	add	r24, r24
    1b30:	99 1f       	adc	r25, r25
    1b32:	0a 94       	dec	r0
    1b34:	e2 f7       	brpl	.-8      	; 0x1b2e <_ZN14HardwareSerial5writeEh+0x6a>
    1b36:	84 2b       	or	r24, r20
    1b38:	80 83       	st	Z, r24
    1b3a:	81 e0       	ldi	r24, 0x01	; 1
    1b3c:	90 e0       	ldi	r25, 0x00	; 0
    1b3e:	df 91       	pop	r29
    1b40:	cf 91       	pop	r28
    1b42:	1f 91       	pop	r17
    1b44:	0f 91       	pop	r16
    1b46:	08 95       	ret

00001b48 <_Z11serialEventv>:
    1b48:	08 95       	ret

00001b4a <__vector_18>:
    1b4a:	1f 92       	push	r1
    1b4c:	0f 92       	push	r0
    1b4e:	0f b6       	in	r0, 0x3f	; 63
    1b50:	0f 92       	push	r0
    1b52:	11 24       	eor	r1, r1
    1b54:	2f 93       	push	r18
    1b56:	4f 93       	push	r20
    1b58:	5f 93       	push	r21
    1b5a:	8f 93       	push	r24
    1b5c:	9f 93       	push	r25
    1b5e:	ef 93       	push	r30
    1b60:	ff 93       	push	r31
    1b62:	20 91 c6 00 	lds	r18, 0x00C6	; 0x8000c6 <__TEXT_REGION_LENGTH__+0x7e00c6>
    1b66:	2d 30       	cpi	r18, 0x0D	; 13
    1b68:	19 f4       	brne	.+6      	; 0x1b70 <__vector_18+0x26>
    1b6a:	81 e0       	ldi	r24, 0x01	; 1
    1b6c:	80 93 a7 05 	sts	0x05A7, r24	; 0x8005a7 <__data_end+0x1f>
    1b70:	80 91 2d 06 	lds	r24, 0x062D	; 0x80062d <rx_buffer+0x40>
    1b74:	90 91 2e 06 	lds	r25, 0x062E	; 0x80062e <rx_buffer+0x41>
    1b78:	40 91 2f 06 	lds	r20, 0x062F	; 0x80062f <rx_buffer+0x42>
    1b7c:	50 91 30 06 	lds	r21, 0x0630	; 0x800630 <rx_buffer+0x43>
    1b80:	01 96       	adiw	r24, 0x01	; 1
    1b82:	8f 73       	andi	r24, 0x3F	; 63
    1b84:	99 27       	eor	r25, r25
    1b86:	48 17       	cp	r20, r24
    1b88:	59 07       	cpc	r21, r25
    1b8a:	59 f0       	breq	.+22     	; 0x1ba2 <__vector_18+0x58>
    1b8c:	e0 91 2d 06 	lds	r30, 0x062D	; 0x80062d <rx_buffer+0x40>
    1b90:	f0 91 2e 06 	lds	r31, 0x062E	; 0x80062e <rx_buffer+0x41>
    1b94:	e3 51       	subi	r30, 0x13	; 19
    1b96:	fa 4f       	sbci	r31, 0xFA	; 250
    1b98:	20 83       	st	Z, r18
    1b9a:	90 93 2e 06 	sts	0x062E, r25	; 0x80062e <rx_buffer+0x41>
    1b9e:	80 93 2d 06 	sts	0x062D, r24	; 0x80062d <rx_buffer+0x40>
    1ba2:	ff 91       	pop	r31
    1ba4:	ef 91       	pop	r30
    1ba6:	9f 91       	pop	r25
    1ba8:	8f 91       	pop	r24
    1baa:	5f 91       	pop	r21
    1bac:	4f 91       	pop	r20
    1bae:	2f 91       	pop	r18
    1bb0:	0f 90       	pop	r0
    1bb2:	0f be       	out	0x3f, r0	; 63
    1bb4:	0f 90       	pop	r0
    1bb6:	1f 90       	pop	r1
    1bb8:	18 95       	reti

00001bba <_Z14serialEventRunv>:
    1bba:	88 e8       	ldi	r24, 0x88	; 136
    1bbc:	95 e0       	ldi	r25, 0x05	; 5
    1bbe:	0e 94 04 0d 	call	0x1a08	; 0x1a08 <_ZN14HardwareSerial9availableEv>
    1bc2:	89 2b       	or	r24, r25
    1bc4:	11 f0       	breq	.+4      	; 0x1bca <_Z14serialEventRunv+0x10>
    1bc6:	0c 94 a4 0d 	jmp	0x1b48	; 0x1b48 <_Z11serialEventv>
    1bca:	08 95       	ret

00001bcc <__vector_19>:
    1bcc:	1f 92       	push	r1
    1bce:	0f 92       	push	r0
    1bd0:	0f b6       	in	r0, 0x3f	; 63
    1bd2:	0f 92       	push	r0
    1bd4:	11 24       	eor	r1, r1
    1bd6:	2f 93       	push	r18
    1bd8:	3f 93       	push	r19
    1bda:	8f 93       	push	r24
    1bdc:	9f 93       	push	r25
    1bde:	ef 93       	push	r30
    1be0:	ff 93       	push	r31
    1be2:	20 91 e9 05 	lds	r18, 0x05E9	; 0x8005e9 <tx_buffer+0x40>
    1be6:	30 91 ea 05 	lds	r19, 0x05EA	; 0x8005ea <tx_buffer+0x41>
    1bea:	80 91 eb 05 	lds	r24, 0x05EB	; 0x8005eb <tx_buffer+0x42>
    1bee:	90 91 ec 05 	lds	r25, 0x05EC	; 0x8005ec <tx_buffer+0x43>
    1bf2:	28 17       	cp	r18, r24
    1bf4:	39 07       	cpc	r19, r25
    1bf6:	31 f4       	brne	.+12     	; 0x1c04 <__vector_19+0x38>
    1bf8:	80 91 c1 00 	lds	r24, 0x00C1	; 0x8000c1 <__TEXT_REGION_LENGTH__+0x7e00c1>
    1bfc:	8f 7d       	andi	r24, 0xDF	; 223
    1bfe:	80 93 c1 00 	sts	0x00C1, r24	; 0x8000c1 <__TEXT_REGION_LENGTH__+0x7e00c1>
    1c02:	14 c0       	rjmp	.+40     	; 0x1c2c <__vector_19+0x60>
    1c04:	e0 91 eb 05 	lds	r30, 0x05EB	; 0x8005eb <tx_buffer+0x42>
    1c08:	f0 91 ec 05 	lds	r31, 0x05EC	; 0x8005ec <tx_buffer+0x43>
    1c0c:	e7 55       	subi	r30, 0x57	; 87
    1c0e:	fa 4f       	sbci	r31, 0xFA	; 250
    1c10:	20 81       	ld	r18, Z
    1c12:	80 91 eb 05 	lds	r24, 0x05EB	; 0x8005eb <tx_buffer+0x42>
    1c16:	90 91 ec 05 	lds	r25, 0x05EC	; 0x8005ec <tx_buffer+0x43>
    1c1a:	01 96       	adiw	r24, 0x01	; 1
    1c1c:	8f 73       	andi	r24, 0x3F	; 63
    1c1e:	99 27       	eor	r25, r25
    1c20:	90 93 ec 05 	sts	0x05EC, r25	; 0x8005ec <tx_buffer+0x43>
    1c24:	80 93 eb 05 	sts	0x05EB, r24	; 0x8005eb <tx_buffer+0x42>
    1c28:	20 93 c6 00 	sts	0x00C6, r18	; 0x8000c6 <__TEXT_REGION_LENGTH__+0x7e00c6>
    1c2c:	ff 91       	pop	r31
    1c2e:	ef 91       	pop	r30
    1c30:	9f 91       	pop	r25
    1c32:	8f 91       	pop	r24
    1c34:	3f 91       	pop	r19
    1c36:	2f 91       	pop	r18
    1c38:	0f 90       	pop	r0
    1c3a:	0f be       	out	0x3f, r0	; 63
    1c3c:	0f 90       	pop	r0
    1c3e:	1f 90       	pop	r1
    1c40:	18 95       	reti

00001c42 <_ZN14HardwareSerial5beginEm>:
    1c42:	cf 92       	push	r12
    1c44:	df 92       	push	r13
    1c46:	ef 92       	push	r14
    1c48:	ff 92       	push	r15
    1c4a:	cf 93       	push	r28
    1c4c:	df 93       	push	r29
    1c4e:	ec 01       	movw	r28, r24
    1c50:	6a 01       	movw	r12, r20
    1c52:	7b 01       	movw	r14, r22
    1c54:	41 15       	cp	r20, r1
    1c56:	51 4e       	sbci	r21, 0xE1	; 225
    1c58:	61 05       	cpc	r22, r1
    1c5a:	71 05       	cpc	r23, r1
    1c5c:	09 f1       	breq	.+66     	; 0x1ca0 <_ZN14HardwareSerial5beginEm+0x5e>
    1c5e:	ec 89       	ldd	r30, Y+20	; 0x14
    1c60:	fd 89       	ldd	r31, Y+21	; 0x15
    1c62:	81 e0       	ldi	r24, 0x01	; 1
    1c64:	90 e0       	ldi	r25, 0x00	; 0
    1c66:	0e 8c       	ldd	r0, Y+30	; 0x1e
    1c68:	02 c0       	rjmp	.+4      	; 0x1c6e <_ZN14HardwareSerial5beginEm+0x2c>
    1c6a:	88 0f       	add	r24, r24
    1c6c:	99 1f       	adc	r25, r25
    1c6e:	0a 94       	dec	r0
    1c70:	e2 f7       	brpl	.-8      	; 0x1c6a <_ZN14HardwareSerial5beginEm+0x28>
    1c72:	80 83       	st	Z, r24
    1c74:	60 e0       	ldi	r22, 0x00	; 0
    1c76:	79 e0       	ldi	r23, 0x09	; 9
    1c78:	8d e3       	ldi	r24, 0x3D	; 61
    1c7a:	90 e0       	ldi	r25, 0x00	; 0
    1c7c:	a7 01       	movw	r20, r14
    1c7e:	96 01       	movw	r18, r12
    1c80:	0e 94 33 1e 	call	0x3c66	; 0x3c66 <__udivmodsi4>
    1c84:	da 01       	movw	r26, r20
    1c86:	c9 01       	movw	r24, r18
    1c88:	01 97       	sbiw	r24, 0x01	; 1
    1c8a:	a1 09       	sbc	r26, r1
    1c8c:	b1 09       	sbc	r27, r1
    1c8e:	b6 95       	lsr	r27
    1c90:	a7 95       	ror	r26
    1c92:	97 95       	ror	r25
    1c94:	87 95       	ror	r24
    1c96:	9c 01       	movw	r18, r24
    1c98:	21 15       	cp	r18, r1
    1c9a:	80 e1       	ldi	r24, 0x10	; 16
    1c9c:	38 07       	cpc	r19, r24
    1c9e:	a8 f0       	brcs	.+42     	; 0x1cca <_ZN14HardwareSerial5beginEm+0x88>
    1ca0:	ec 89       	ldd	r30, Y+20	; 0x14
    1ca2:	fd 89       	ldd	r31, Y+21	; 0x15
    1ca4:	10 82       	st	Z, r1
    1ca6:	60 e8       	ldi	r22, 0x80	; 128
    1ca8:	74 e8       	ldi	r23, 0x84	; 132
    1caa:	8e e1       	ldi	r24, 0x1E	; 30
    1cac:	90 e0       	ldi	r25, 0x00	; 0
    1cae:	a7 01       	movw	r20, r14
    1cb0:	96 01       	movw	r18, r12
    1cb2:	0e 94 33 1e 	call	0x3c66	; 0x3c66 <__udivmodsi4>
    1cb6:	da 01       	movw	r26, r20
    1cb8:	c9 01       	movw	r24, r18
    1cba:	01 97       	sbiw	r24, 0x01	; 1
    1cbc:	a1 09       	sbc	r26, r1
    1cbe:	b1 09       	sbc	r27, r1
    1cc0:	b6 95       	lsr	r27
    1cc2:	a7 95       	ror	r26
    1cc4:	97 95       	ror	r25
    1cc6:	87 95       	ror	r24
    1cc8:	9c 01       	movw	r18, r24
    1cca:	e8 89       	ldd	r30, Y+16	; 0x10
    1ccc:	f9 89       	ldd	r31, Y+17	; 0x11
    1cce:	30 83       	st	Z, r19
    1cd0:	ea 89       	ldd	r30, Y+18	; 0x12
    1cd2:	fb 89       	ldd	r31, Y+19	; 0x13
    1cd4:	20 83       	st	Z, r18
    1cd6:	ee 89       	ldd	r30, Y+22	; 0x16
    1cd8:	ff 89       	ldd	r31, Y+23	; 0x17
    1cda:	40 81       	ld	r20, Z
    1cdc:	81 e0       	ldi	r24, 0x01	; 1
    1cde:	90 e0       	ldi	r25, 0x00	; 0
    1ce0:	9c 01       	movw	r18, r24
    1ce2:	0a 8c       	ldd	r0, Y+26	; 0x1a
    1ce4:	02 c0       	rjmp	.+4      	; 0x1cea <_ZN14HardwareSerial5beginEm+0xa8>
    1ce6:	22 0f       	add	r18, r18
    1ce8:	33 1f       	adc	r19, r19
    1cea:	0a 94       	dec	r0
    1cec:	e2 f7       	brpl	.-8      	; 0x1ce6 <_ZN14HardwareSerial5beginEm+0xa4>
    1cee:	24 2b       	or	r18, r20
    1cf0:	20 83       	st	Z, r18
    1cf2:	ee 89       	ldd	r30, Y+22	; 0x16
    1cf4:	ff 89       	ldd	r31, Y+23	; 0x17
    1cf6:	40 81       	ld	r20, Z
    1cf8:	9c 01       	movw	r18, r24
    1cfa:	0b 8c       	ldd	r0, Y+27	; 0x1b
    1cfc:	02 c0       	rjmp	.+4      	; 0x1d02 <_ZN14HardwareSerial5beginEm+0xc0>
    1cfe:	22 0f       	add	r18, r18
    1d00:	33 1f       	adc	r19, r19
    1d02:	0a 94       	dec	r0
    1d04:	e2 f7       	brpl	.-8      	; 0x1cfe <_ZN14HardwareSerial5beginEm+0xbc>
    1d06:	24 2b       	or	r18, r20
    1d08:	20 83       	st	Z, r18
    1d0a:	ee 89       	ldd	r30, Y+22	; 0x16
    1d0c:	ff 89       	ldd	r31, Y+23	; 0x17
    1d0e:	40 81       	ld	r20, Z
    1d10:	9c 01       	movw	r18, r24
    1d12:	0c 8c       	ldd	r0, Y+28	; 0x1c
    1d14:	02 c0       	rjmp	.+4      	; 0x1d1a <_ZN14HardwareSerial5beginEm+0xd8>
    1d16:	22 0f       	add	r18, r18
    1d18:	33 1f       	adc	r19, r19
    1d1a:	0a 94       	dec	r0
    1d1c:	e2 f7       	brpl	.-8      	; 0x1d16 <_ZN14HardwareSerial5beginEm+0xd4>
    1d1e:	24 2b       	or	r18, r20
    1d20:	20 83       	st	Z, r18
    1d22:	ee 89       	ldd	r30, Y+22	; 0x16
    1d24:	ff 89       	ldd	r31, Y+23	; 0x17
    1d26:	20 81       	ld	r18, Z
    1d28:	0d 8c       	ldd	r0, Y+29	; 0x1d
    1d2a:	02 c0       	rjmp	.+4      	; 0x1d30 <_ZN14HardwareSerial5beginEm+0xee>
    1d2c:	88 0f       	add	r24, r24
    1d2e:	99 1f       	adc	r25, r25
    1d30:	0a 94       	dec	r0
    1d32:	e2 f7       	brpl	.-8      	; 0x1d2c <_ZN14HardwareSerial5beginEm+0xea>
    1d34:	80 95       	com	r24
    1d36:	82 23       	and	r24, r18
    1d38:	80 83       	st	Z, r24
    1d3a:	1f 8e       	std	Y+31, r1	; 0x1f
    1d3c:	df 91       	pop	r29
    1d3e:	cf 91       	pop	r28
    1d40:	ff 90       	pop	r15
    1d42:	ef 90       	pop	r14
    1d44:	df 90       	pop	r13
    1d46:	cf 90       	pop	r12
    1d48:	08 95       	ret

00001d4a <_ZN14HardwareSerial16crStatusDetectedEv>:
    1d4a:	fc 01       	movw	r30, r24
    1d4c:	87 8d       	ldd	r24, Z+31	; 0x1f
    1d4e:	88 23       	and	r24, r24
    1d50:	11 f0       	breq	.+4      	; 0x1d56 <_ZN14HardwareSerial16crStatusDetectedEv+0xc>
    1d52:	17 8e       	std	Z+31, r1	; 0x1f
    1d54:	81 e0       	ldi	r24, 0x01	; 1
    1d56:	08 95       	ret

00001d58 <_GLOBAL__sub_I_rx_buffer>:
    1d58:	e8 e8       	ldi	r30, 0x88	; 136
    1d5a:	f5 e0       	ldi	r31, 0x05	; 5
    1d5c:	13 82       	std	Z+3, r1	; 0x03
    1d5e:	12 82       	std	Z+2, r1	; 0x02
    1d60:	88 ee       	ldi	r24, 0xE8	; 232
    1d62:	93 e0       	ldi	r25, 0x03	; 3
    1d64:	a0 e0       	ldi	r26, 0x00	; 0
    1d66:	b0 e0       	ldi	r27, 0x00	; 0
    1d68:	84 83       	std	Z+4, r24	; 0x04
    1d6a:	95 83       	std	Z+5, r25	; 0x05
    1d6c:	a6 83       	std	Z+6, r26	; 0x06
    1d6e:	b7 83       	std	Z+7, r27	; 0x07
    1d70:	8c e5       	ldi	r24, 0x5C	; 92
    1d72:	95 e0       	ldi	r25, 0x05	; 5
    1d74:	91 83       	std	Z+1, r25	; 0x01
    1d76:	80 83       	st	Z, r24
    1d78:	8d ee       	ldi	r24, 0xED	; 237
    1d7a:	95 e0       	ldi	r25, 0x05	; 5
    1d7c:	95 87       	std	Z+13, r25	; 0x0d
    1d7e:	84 87       	std	Z+12, r24	; 0x0c
    1d80:	89 ea       	ldi	r24, 0xA9	; 169
    1d82:	95 e0       	ldi	r25, 0x05	; 5
    1d84:	97 87       	std	Z+15, r25	; 0x0f
    1d86:	86 87       	std	Z+14, r24	; 0x0e
    1d88:	85 ec       	ldi	r24, 0xC5	; 197
    1d8a:	90 e0       	ldi	r25, 0x00	; 0
    1d8c:	91 8b       	std	Z+17, r25	; 0x11
    1d8e:	80 8b       	std	Z+16, r24	; 0x10
    1d90:	84 ec       	ldi	r24, 0xC4	; 196
    1d92:	90 e0       	ldi	r25, 0x00	; 0
    1d94:	93 8b       	std	Z+19, r25	; 0x13
    1d96:	82 8b       	std	Z+18, r24	; 0x12
    1d98:	80 ec       	ldi	r24, 0xC0	; 192
    1d9a:	90 e0       	ldi	r25, 0x00	; 0
    1d9c:	95 8b       	std	Z+21, r25	; 0x15
    1d9e:	84 8b       	std	Z+20, r24	; 0x14
    1da0:	81 ec       	ldi	r24, 0xC1	; 193
    1da2:	90 e0       	ldi	r25, 0x00	; 0
    1da4:	97 8b       	std	Z+23, r25	; 0x17
    1da6:	86 8b       	std	Z+22, r24	; 0x16
    1da8:	86 ec       	ldi	r24, 0xC6	; 198
    1daa:	90 e0       	ldi	r25, 0x00	; 0
    1dac:	91 8f       	std	Z+25, r25	; 0x19
    1dae:	80 8f       	std	Z+24, r24	; 0x18
    1db0:	84 e0       	ldi	r24, 0x04	; 4
    1db2:	82 8f       	std	Z+26, r24	; 0x1a
    1db4:	83 e0       	ldi	r24, 0x03	; 3
    1db6:	83 8f       	std	Z+27, r24	; 0x1b
    1db8:	87 e0       	ldi	r24, 0x07	; 7
    1dba:	84 8f       	std	Z+28, r24	; 0x1c
    1dbc:	85 e0       	ldi	r24, 0x05	; 5
    1dbe:	85 8f       	std	Z+29, r24	; 0x1d
    1dc0:	81 e0       	ldi	r24, 0x01	; 1
    1dc2:	86 8f       	std	Z+30, r24	; 0x1e
    1dc4:	08 95       	ret

00001dc6 <_Z8i2c_initm>:
    1dc6:	9b 01       	movw	r18, r22
    1dc8:	ac 01       	movw	r20, r24
    1dca:	60 e0       	ldi	r22, 0x00	; 0
    1dcc:	74 e2       	ldi	r23, 0x24	; 36
    1dce:	84 ef       	ldi	r24, 0xF4	; 244
    1dd0:	90 e0       	ldi	r25, 0x00	; 0
    1dd2:	0e 94 33 1e 	call	0x3c66	; 0x3c66 <__udivmodsi4>
    1dd6:	da 01       	movw	r26, r20
    1dd8:	c9 01       	movw	r24, r18
    1dda:	40 97       	sbiw	r24, 0x10	; 16
    1ddc:	a1 09       	sbc	r26, r1
    1dde:	b1 09       	sbc	r27, r1
    1de0:	b6 95       	lsr	r27
    1de2:	a7 95       	ror	r26
    1de4:	97 95       	ror	r25
    1de6:	87 95       	ror	r24
    1de8:	8f 3f       	cpi	r24, 0xFF	; 255
    1dea:	91 05       	cpc	r25, r1
    1dec:	09 f0       	breq	.+2      	; 0x1df0 <_Z8i2c_initm+0x2a>
    1dee:	40 f4       	brcc	.+16     	; 0x1e00 <_Z8i2c_initm+0x3a>
    1df0:	10 92 b9 00 	sts	0x00B9, r1	; 0x8000b9 <__TEXT_REGION_LENGTH__+0x7e00b9>
    1df4:	80 93 b8 00 	sts	0x00B8, r24	; 0x8000b8 <__TEXT_REGION_LENGTH__+0x7e00b8>
    1df8:	24 e0       	ldi	r18, 0x04	; 4
    1dfa:	20 93 bc 00 	sts	0x00BC, r18	; 0x8000bc <__TEXT_REGION_LENGTH__+0x7e00bc>
    1dfe:	08 95       	ret
    1e00:	80 e0       	ldi	r24, 0x00	; 0
    1e02:	90 e0       	ldi	r25, 0x00	; 0
    1e04:	08 95       	ret

00001e06 <_Z9i2c_startv>:
    1e06:	0f 93       	push	r16
    1e08:	1f 93       	push	r17
    1e0a:	84 ea       	ldi	r24, 0xA4	; 164
    1e0c:	80 93 bc 00 	sts	0x00BC, r24	; 0x8000bc <__TEXT_REGION_LENGTH__+0x7e00bc>
    1e10:	0e 94 f6 1a 	call	0x35ec	; 0x35ec <millis>
    1e14:	60 93 31 06 	sts	0x0631, r22	; 0x800631 <time_stamp>
    1e18:	70 93 32 06 	sts	0x0632, r23	; 0x800632 <time_stamp+0x1>
    1e1c:	80 93 33 06 	sts	0x0633, r24	; 0x800633 <time_stamp+0x2>
    1e20:	90 93 34 06 	sts	0x0634, r25	; 0x800634 <time_stamp+0x3>
    1e24:	80 91 bc 00 	lds	r24, 0x00BC	; 0x8000bc <__TEXT_REGION_LENGTH__+0x7e00bc>
    1e28:	87 fd       	sbrc	r24, 7
    1e2a:	1e c0       	rjmp	.+60     	; 0x1e68 <_Z9i2c_startv+0x62>
    1e2c:	0e 94 f6 1a 	call	0x35ec	; 0x35ec <millis>
    1e30:	00 91 31 06 	lds	r16, 0x0631	; 0x800631 <time_stamp>
    1e34:	10 91 32 06 	lds	r17, 0x0632	; 0x800632 <time_stamp+0x1>
    1e38:	20 91 33 06 	lds	r18, 0x0633	; 0x800633 <time_stamp+0x2>
    1e3c:	30 91 34 06 	lds	r19, 0x0634	; 0x800634 <time_stamp+0x3>
    1e40:	ab 01       	movw	r20, r22
    1e42:	bc 01       	movw	r22, r24
    1e44:	40 1b       	sub	r20, r16
    1e46:	51 0b       	sbc	r21, r17
    1e48:	62 0b       	sbc	r22, r18
    1e4a:	73 0b       	sbc	r23, r19
    1e4c:	80 91 18 05 	lds	r24, 0x0518	; 0x800518 <timeout_val>
    1e50:	90 91 19 05 	lds	r25, 0x0519	; 0x800519 <timeout_val+0x1>
    1e54:	a0 e0       	ldi	r26, 0x00	; 0
    1e56:	b0 e0       	ldi	r27, 0x00	; 0
    1e58:	84 17       	cp	r24, r20
    1e5a:	95 07       	cpc	r25, r21
    1e5c:	a6 07       	cpc	r26, r22
    1e5e:	b7 07       	cpc	r27, r23
    1e60:	08 f7       	brcc	.-62     	; 0x1e24 <_Z9i2c_startv+0x1e>
    1e62:	82 e0       	ldi	r24, 0x02	; 2
    1e64:	90 e0       	ldi	r25, 0x00	; 0
    1e66:	08 c0       	rjmp	.+16     	; 0x1e78 <_Z9i2c_startv+0x72>
    1e68:	20 91 b9 00 	lds	r18, 0x00B9	; 0x8000b9 <__TEXT_REGION_LENGTH__+0x7e00b9>
    1e6c:	28 7f       	andi	r18, 0xF8	; 248
    1e6e:	81 e0       	ldi	r24, 0x01	; 1
    1e70:	90 e0       	ldi	r25, 0x00	; 0
    1e72:	28 30       	cpi	r18, 0x08	; 8
    1e74:	09 f0       	breq	.+2      	; 0x1e78 <_Z9i2c_startv+0x72>
    1e76:	80 e0       	ldi	r24, 0x00	; 0
    1e78:	1f 91       	pop	r17
    1e7a:	0f 91       	pop	r16
    1e7c:	08 95       	ret

00001e7e <_Z13i2c_rep_startv>:
    1e7e:	0f 93       	push	r16
    1e80:	1f 93       	push	r17
    1e82:	84 ea       	ldi	r24, 0xA4	; 164
    1e84:	80 93 bc 00 	sts	0x00BC, r24	; 0x8000bc <__TEXT_REGION_LENGTH__+0x7e00bc>
    1e88:	0e 94 f6 1a 	call	0x35ec	; 0x35ec <millis>
    1e8c:	60 93 31 06 	sts	0x0631, r22	; 0x800631 <time_stamp>
    1e90:	70 93 32 06 	sts	0x0632, r23	; 0x800632 <time_stamp+0x1>
    1e94:	80 93 33 06 	sts	0x0633, r24	; 0x800633 <time_stamp+0x2>
    1e98:	90 93 34 06 	sts	0x0634, r25	; 0x800634 <time_stamp+0x3>
    1e9c:	80 91 bc 00 	lds	r24, 0x00BC	; 0x8000bc <__TEXT_REGION_LENGTH__+0x7e00bc>
    1ea0:	87 fd       	sbrc	r24, 7
    1ea2:	1e c0       	rjmp	.+60     	; 0x1ee0 <_Z13i2c_rep_startv+0x62>
    1ea4:	0e 94 f6 1a 	call	0x35ec	; 0x35ec <millis>
    1ea8:	00 91 31 06 	lds	r16, 0x0631	; 0x800631 <time_stamp>
    1eac:	10 91 32 06 	lds	r17, 0x0632	; 0x800632 <time_stamp+0x1>
    1eb0:	20 91 33 06 	lds	r18, 0x0633	; 0x800633 <time_stamp+0x2>
    1eb4:	30 91 34 06 	lds	r19, 0x0634	; 0x800634 <time_stamp+0x3>
    1eb8:	ab 01       	movw	r20, r22
    1eba:	bc 01       	movw	r22, r24
    1ebc:	40 1b       	sub	r20, r16
    1ebe:	51 0b       	sbc	r21, r17
    1ec0:	62 0b       	sbc	r22, r18
    1ec2:	73 0b       	sbc	r23, r19
    1ec4:	80 91 18 05 	lds	r24, 0x0518	; 0x800518 <timeout_val>
    1ec8:	90 91 19 05 	lds	r25, 0x0519	; 0x800519 <timeout_val+0x1>
    1ecc:	a0 e0       	ldi	r26, 0x00	; 0
    1ece:	b0 e0       	ldi	r27, 0x00	; 0
    1ed0:	84 17       	cp	r24, r20
    1ed2:	95 07       	cpc	r25, r21
    1ed4:	a6 07       	cpc	r26, r22
    1ed6:	b7 07       	cpc	r27, r23
    1ed8:	08 f7       	brcc	.-62     	; 0x1e9c <_Z13i2c_rep_startv+0x1e>
    1eda:	82 e0       	ldi	r24, 0x02	; 2
    1edc:	90 e0       	ldi	r25, 0x00	; 0
    1ede:	08 c0       	rjmp	.+16     	; 0x1ef0 <_Z13i2c_rep_startv+0x72>
    1ee0:	20 91 b9 00 	lds	r18, 0x00B9	; 0x8000b9 <__TEXT_REGION_LENGTH__+0x7e00b9>
    1ee4:	28 7f       	andi	r18, 0xF8	; 248
    1ee6:	81 e0       	ldi	r24, 0x01	; 1
    1ee8:	90 e0       	ldi	r25, 0x00	; 0
    1eea:	20 31       	cpi	r18, 0x10	; 16
    1eec:	09 f0       	breq	.+2      	; 0x1ef0 <_Z13i2c_rep_startv+0x72>
    1eee:	80 e0       	ldi	r24, 0x00	; 0
    1ef0:	1f 91       	pop	r17
    1ef2:	0f 91       	pop	r16
    1ef4:	08 95       	ret

00001ef6 <_Z12i2c_transmith>:
    1ef6:	0f 93       	push	r16
    1ef8:	1f 93       	push	r17
    1efa:	80 93 bb 00 	sts	0x00BB, r24	; 0x8000bb <__TEXT_REGION_LENGTH__+0x7e00bb>
    1efe:	90 91 bc 00 	lds	r25, 0x00BC	; 0x8000bc <__TEXT_REGION_LENGTH__+0x7e00bc>
    1f02:	93 fd       	sbrc	r25, 3
    1f04:	fa cf       	rjmp	.-12     	; 0x1efa <_Z12i2c_transmith+0x4>
    1f06:	84 e8       	ldi	r24, 0x84	; 132
    1f08:	80 93 bc 00 	sts	0x00BC, r24	; 0x8000bc <__TEXT_REGION_LENGTH__+0x7e00bc>
    1f0c:	0e 94 f6 1a 	call	0x35ec	; 0x35ec <millis>
    1f10:	60 93 31 06 	sts	0x0631, r22	; 0x800631 <time_stamp>
    1f14:	70 93 32 06 	sts	0x0632, r23	; 0x800632 <time_stamp+0x1>
    1f18:	80 93 33 06 	sts	0x0633, r24	; 0x800633 <time_stamp+0x2>
    1f1c:	90 93 34 06 	sts	0x0634, r25	; 0x800634 <time_stamp+0x3>
    1f20:	80 91 bc 00 	lds	r24, 0x00BC	; 0x8000bc <__TEXT_REGION_LENGTH__+0x7e00bc>
    1f24:	87 fd       	sbrc	r24, 7
    1f26:	1d c0       	rjmp	.+58     	; 0x1f62 <_Z12i2c_transmith+0x6c>
    1f28:	0e 94 f6 1a 	call	0x35ec	; 0x35ec <millis>
    1f2c:	00 91 31 06 	lds	r16, 0x0631	; 0x800631 <time_stamp>
    1f30:	10 91 32 06 	lds	r17, 0x0632	; 0x800632 <time_stamp+0x1>
    1f34:	20 91 33 06 	lds	r18, 0x0633	; 0x800633 <time_stamp+0x2>
    1f38:	30 91 34 06 	lds	r19, 0x0634	; 0x800634 <time_stamp+0x3>
    1f3c:	ab 01       	movw	r20, r22
    1f3e:	bc 01       	movw	r22, r24
    1f40:	40 1b       	sub	r20, r16
    1f42:	51 0b       	sbc	r21, r17
    1f44:	62 0b       	sbc	r22, r18
    1f46:	73 0b       	sbc	r23, r19
    1f48:	80 91 18 05 	lds	r24, 0x0518	; 0x800518 <timeout_val>
    1f4c:	90 91 19 05 	lds	r25, 0x0519	; 0x800519 <timeout_val+0x1>
    1f50:	a0 e0       	ldi	r26, 0x00	; 0
    1f52:	b0 e0       	ldi	r27, 0x00	; 0
    1f54:	84 17       	cp	r24, r20
    1f56:	95 07       	cpc	r25, r21
    1f58:	a6 07       	cpc	r26, r22
    1f5a:	b7 07       	cpc	r27, r23
    1f5c:	08 f7       	brcc	.-62     	; 0x1f20 <_Z12i2c_transmith+0x2a>
    1f5e:	82 e0       	ldi	r24, 0x02	; 2
    1f60:	03 c0       	rjmp	.+6      	; 0x1f68 <_Z12i2c_transmith+0x72>
    1f62:	80 91 b9 00 	lds	r24, 0x00B9	; 0x8000b9 <__TEXT_REGION_LENGTH__+0x7e00b9>
    1f66:	88 7f       	andi	r24, 0xF8	; 248
    1f68:	1f 91       	pop	r17
    1f6a:	0f 91       	pop	r16
    1f6c:	08 95       	ret

00001f6e <_Z11i2c_receivehPh>:
    1f6e:	0f 93       	push	r16
    1f70:	1f 93       	push	r17
    1f72:	cf 93       	push	r28
    1f74:	df 93       	push	r29
    1f76:	eb 01       	movw	r28, r22
    1f78:	88 23       	and	r24, r24
    1f7a:	11 f0       	breq	.+4      	; 0x1f80 <_Z11i2c_receivehPh+0x12>
    1f7c:	84 e8       	ldi	r24, 0x84	; 132
    1f7e:	01 c0       	rjmp	.+2      	; 0x1f82 <_Z11i2c_receivehPh+0x14>
    1f80:	84 ec       	ldi	r24, 0xC4	; 196
    1f82:	80 93 bc 00 	sts	0x00BC, r24	; 0x8000bc <__TEXT_REGION_LENGTH__+0x7e00bc>
    1f86:	0e 94 f6 1a 	call	0x35ec	; 0x35ec <millis>
    1f8a:	60 93 31 06 	sts	0x0631, r22	; 0x800631 <time_stamp>
    1f8e:	70 93 32 06 	sts	0x0632, r23	; 0x800632 <time_stamp+0x1>
    1f92:	80 93 33 06 	sts	0x0633, r24	; 0x800633 <time_stamp+0x2>
    1f96:	90 93 34 06 	sts	0x0634, r25	; 0x800634 <time_stamp+0x3>
    1f9a:	80 91 bc 00 	lds	r24, 0x00BC	; 0x8000bc <__TEXT_REGION_LENGTH__+0x7e00bc>
    1f9e:	87 fd       	sbrc	r24, 7
    1fa0:	1d c0       	rjmp	.+58     	; 0x1fdc <_Z11i2c_receivehPh+0x6e>
    1fa2:	0e 94 f6 1a 	call	0x35ec	; 0x35ec <millis>
    1fa6:	00 91 31 06 	lds	r16, 0x0631	; 0x800631 <time_stamp>
    1faa:	10 91 32 06 	lds	r17, 0x0632	; 0x800632 <time_stamp+0x1>
    1fae:	20 91 33 06 	lds	r18, 0x0633	; 0x800633 <time_stamp+0x2>
    1fb2:	30 91 34 06 	lds	r19, 0x0634	; 0x800634 <time_stamp+0x3>
    1fb6:	ab 01       	movw	r20, r22
    1fb8:	bc 01       	movw	r22, r24
    1fba:	40 1b       	sub	r20, r16
    1fbc:	51 0b       	sbc	r21, r17
    1fbe:	62 0b       	sbc	r22, r18
    1fc0:	73 0b       	sbc	r23, r19
    1fc2:	80 91 18 05 	lds	r24, 0x0518	; 0x800518 <timeout_val>
    1fc6:	90 91 19 05 	lds	r25, 0x0519	; 0x800519 <timeout_val+0x1>
    1fca:	a0 e0       	ldi	r26, 0x00	; 0
    1fcc:	b0 e0       	ldi	r27, 0x00	; 0
    1fce:	84 17       	cp	r24, r20
    1fd0:	95 07       	cpc	r25, r21
    1fd2:	a6 07       	cpc	r26, r22
    1fd4:	b7 07       	cpc	r27, r23
    1fd6:	08 f7       	brcc	.-62     	; 0x1f9a <_Z11i2c_receivehPh+0x2c>
    1fd8:	82 e0       	ldi	r24, 0x02	; 2
    1fda:	04 c0       	rjmp	.+8      	; 0x1fe4 <_Z11i2c_receivehPh+0x76>
    1fdc:	80 91 bb 00 	lds	r24, 0x00BB	; 0x8000bb <__TEXT_REGION_LENGTH__+0x7e00bb>
    1fe0:	88 83       	st	Y, r24
    1fe2:	81 e0       	ldi	r24, 0x01	; 1
    1fe4:	df 91       	pop	r29
    1fe6:	cf 91       	pop	r28
    1fe8:	1f 91       	pop	r17
    1fea:	0f 91       	pop	r16
    1fec:	08 95       	ret

00001fee <_Z12i2c_tx_sla_rh>:
    1fee:	88 0f       	add	r24, r24
    1ff0:	81 60       	ori	r24, 0x01	; 1
    1ff2:	0c 94 7b 0f 	jmp	0x1ef6	; 0x1ef6 <_Z12i2c_transmith>

00001ff6 <_Z12i2c_tx_sla_wh>:
    1ff6:	88 0f       	add	r24, r24
    1ff8:	0c 94 7b 0f 	jmp	0x1ef6	; 0x1ef6 <_Z12i2c_transmith>

00001ffc <_Z9i2c_writehhPhh>:
    1ffc:	ff 92       	push	r15
    1ffe:	0f 93       	push	r16
    2000:	1f 93       	push	r17
    2002:	cf 93       	push	r28
    2004:	df 93       	push	r29
    2006:	d8 2f       	mov	r29, r24
    2008:	c6 2f       	mov	r28, r22
    200a:	f4 2e       	mov	r15, r20
    200c:	05 2f       	mov	r16, r21
    200e:	12 2f       	mov	r17, r18
    2010:	0e 94 03 0f 	call	0x1e06	; 0x1e06 <_Z9i2c_startv>
    2014:	8d 2f       	mov	r24, r29
    2016:	0e 94 fb 0f 	call	0x1ff6	; 0x1ff6 <_Z12i2c_tx_sla_wh>
    201a:	8c 2f       	mov	r24, r28
    201c:	0e 94 7b 0f 	call	0x1ef6	; 0x1ef6 <_Z12i2c_transmith>
    2020:	cf 2d       	mov	r28, r15
    2022:	d0 2f       	mov	r29, r16
    2024:	ce 01       	movw	r24, r28
    2026:	81 0f       	add	r24, r17
    2028:	91 1d       	adc	r25, r1
    202a:	8c 01       	movw	r16, r24
    202c:	c0 17       	cp	r28, r16
    202e:	d1 07       	cpc	r29, r17
    2030:	21 f0       	breq	.+8      	; 0x203a <_Z9i2c_writehhPhh+0x3e>
    2032:	89 91       	ld	r24, Y+
    2034:	0e 94 7b 0f 	call	0x1ef6	; 0x1ef6 <_Z12i2c_transmith>
    2038:	f9 cf       	rjmp	.-14     	; 0x202c <_Z9i2c_writehhPhh+0x30>
    203a:	84 e9       	ldi	r24, 0x94	; 148
    203c:	80 93 bc 00 	sts	0x00BC, r24	; 0x8000bc <__TEXT_REGION_LENGTH__+0x7e00bc>
    2040:	81 e0       	ldi	r24, 0x01	; 1
    2042:	df 91       	pop	r29
    2044:	cf 91       	pop	r28
    2046:	1f 91       	pop	r17
    2048:	0f 91       	pop	r16
    204a:	ff 90       	pop	r15
    204c:	08 95       	ret

0000204e <_Z8i2c_readhhPhh>:
    204e:	cf 92       	push	r12
    2050:	df 92       	push	r13
    2052:	ef 92       	push	r14
    2054:	ff 92       	push	r15
    2056:	0f 93       	push	r16
    2058:	1f 93       	push	r17
    205a:	cf 93       	push	r28
    205c:	df 93       	push	r29
    205e:	c8 2f       	mov	r28, r24
    2060:	d6 2f       	mov	r29, r22
    2062:	8a 01       	movw	r16, r20
    2064:	e2 2e       	mov	r14, r18
    2066:	0e 94 03 0f 	call	0x1e06	; 0x1e06 <_Z9i2c_startv>
    206a:	8c 2f       	mov	r24, r28
    206c:	0e 94 fb 0f 	call	0x1ff6	; 0x1ff6 <_Z12i2c_tx_sla_wh>
    2070:	8d 2f       	mov	r24, r29
    2072:	0e 94 7b 0f 	call	0x1ef6	; 0x1ef6 <_Z12i2c_transmith>
    2076:	0e 94 3f 0f 	call	0x1e7e	; 0x1e7e <_Z13i2c_rep_startv>
    207a:	8c 2f       	mov	r24, r28
    207c:	0e 94 f7 0f 	call	0x1fee	; 0x1fee <_Z12i2c_tx_sla_rh>
    2080:	e8 01       	movw	r28, r16
    2082:	f1 2c       	mov	r15, r1
    2084:	00 e0       	ldi	r16, 0x00	; 0
    2086:	10 e0       	ldi	r17, 0x00	; 0
    2088:	67 01       	movw	r12, r14
    208a:	81 e0       	ldi	r24, 0x01	; 1
    208c:	c8 1a       	sub	r12, r24
    208e:	d1 08       	sbc	r13, r1
    2090:	0e 15       	cp	r16, r14
    2092:	1f 05       	cpc	r17, r15
    2094:	69 f0       	breq	.+26     	; 0x20b0 <_Z8i2c_readhhPhh+0x62>
    2096:	be 01       	movw	r22, r28
    2098:	c0 16       	cp	r12, r16
    209a:	d1 06       	cpc	r13, r17
    209c:	11 f0       	breq	.+4      	; 0x20a2 <_Z8i2c_readhhPhh+0x54>
    209e:	80 e0       	ldi	r24, 0x00	; 0
    20a0:	01 c0       	rjmp	.+2      	; 0x20a4 <_Z8i2c_readhhPhh+0x56>
    20a2:	81 e0       	ldi	r24, 0x01	; 1
    20a4:	0e 94 b7 0f 	call	0x1f6e	; 0x1f6e <_Z11i2c_receivehPh>
    20a8:	0f 5f       	subi	r16, 0xFF	; 255
    20aa:	1f 4f       	sbci	r17, 0xFF	; 255
    20ac:	21 96       	adiw	r28, 0x01	; 1
    20ae:	f0 cf       	rjmp	.-32     	; 0x2090 <_Z8i2c_readhhPhh+0x42>
    20b0:	84 e9       	ldi	r24, 0x94	; 148
    20b2:	80 93 bc 00 	sts	0x00BC, r24	; 0x8000bc <__TEXT_REGION_LENGTH__+0x7e00bc>
    20b6:	81 e0       	ldi	r24, 0x01	; 1
    20b8:	df 91       	pop	r29
    20ba:	cf 91       	pop	r28
    20bc:	1f 91       	pop	r17
    20be:	0f 91       	pop	r16
    20c0:	ff 90       	pop	r15
    20c2:	ef 90       	pop	r14
    20c4:	df 90       	pop	r13
    20c6:	cf 90       	pop	r12
    20c8:	08 95       	ret

000020ca <_ZN6INA2265beginEh>:
    20ca:	fc 01       	movw	r30, r24
    20cc:	60 83       	st	Z, r22
    20ce:	81 e0       	ldi	r24, 0x01	; 1
    20d0:	08 95       	ret

000020d2 <_ZN6INA22614readRegister16Eh>:
    20d2:	cf 93       	push	r28
    20d4:	df 93       	push	r29
    20d6:	00 d0       	rcall	.+0      	; 0x20d8 <_ZN6INA22614readRegister16Eh+0x6>
    20d8:	cd b7       	in	r28, 0x3d	; 61
    20da:	de b7       	in	r29, 0x3e	; 62
    20dc:	1a 82       	std	Y+2, r1	; 0x02
    20de:	19 82       	std	Y+1, r1	; 0x01
    20e0:	22 e0       	ldi	r18, 0x02	; 2
    20e2:	ae 01       	movw	r20, r28
    20e4:	4f 5f       	subi	r20, 0xFF	; 255
    20e6:	5f 4f       	sbci	r21, 0xFF	; 255
    20e8:	fc 01       	movw	r30, r24
    20ea:	80 81       	ld	r24, Z
    20ec:	0e 94 27 10 	call	0x204e	; 0x204e <_Z8i2c_readhhPhh>
    20f0:	89 81       	ldd	r24, Y+1	; 0x01
    20f2:	9a 81       	ldd	r25, Y+2	; 0x02
    20f4:	98 27       	eor	r25, r24
    20f6:	89 27       	eor	r24, r25
    20f8:	98 27       	eor	r25, r24
    20fa:	0f 90       	pop	r0
    20fc:	0f 90       	pop	r0
    20fe:	df 91       	pop	r29
    2100:	cf 91       	pop	r28
    2102:	08 95       	ret

00002104 <_ZN6INA22616readShuntCurrentEv>:
    2104:	cf 93       	push	r28
    2106:	df 93       	push	r29
    2108:	ec 01       	movw	r28, r24
    210a:	64 e0       	ldi	r22, 0x04	; 4
    210c:	0e 94 69 10 	call	0x20d2	; 0x20d2 <_ZN6INA22614readRegister16Eh>
    2110:	bc 01       	movw	r22, r24
    2112:	99 0f       	add	r25, r25
    2114:	88 0b       	sbc	r24, r24
    2116:	99 0b       	sbc	r25, r25
    2118:	0e 94 50 19 	call	0x32a0	; 0x32a0 <__floatsisf>
    211c:	29 81       	ldd	r18, Y+1	; 0x01
    211e:	3a 81       	ldd	r19, Y+2	; 0x02
    2120:	4b 81       	ldd	r20, Y+3	; 0x03
    2122:	5c 81       	ldd	r21, Y+4	; 0x04
    2124:	0e 94 41 1a 	call	0x3482	; 0x3482 <__mulsf3>
    2128:	df 91       	pop	r29
    212a:	cf 91       	pop	r28
    212c:	08 95       	ret

0000212e <_ZN6INA22614readBusVoltageEv>:
    212e:	62 e0       	ldi	r22, 0x02	; 2
    2130:	0e 94 69 10 	call	0x20d2	; 0x20d2 <_ZN6INA22614readRegister16Eh>
    2134:	bc 01       	movw	r22, r24
    2136:	99 0f       	add	r25, r25
    2138:	88 0b       	sbc	r24, r24
    213a:	99 0b       	sbc	r25, r25
    213c:	0e 94 50 19 	call	0x32a0	; 0x32a0 <__floatsisf>
    2140:	2a e0       	ldi	r18, 0x0A	; 10
    2142:	37 ed       	ldi	r19, 0xD7	; 215
    2144:	43 ea       	ldi	r20, 0xA3	; 163
    2146:	5a e3       	ldi	r21, 0x3A	; 58
    2148:	0e 94 41 1a 	call	0x3482	; 0x3482 <__mulsf3>
    214c:	08 95       	ret

0000214e <_ZN6INA22615writeRegister16Ehj>:
    214e:	cf 93       	push	r28
    2150:	df 93       	push	r29
    2152:	00 d0       	rcall	.+0      	; 0x2154 <_ZN6INA22615writeRegister16Ehj+0x6>
    2154:	cd b7       	in	r28, 0x3d	; 61
    2156:	de b7       	in	r29, 0x3e	; 62
    2158:	4a 83       	std	Y+2, r20	; 0x02
    215a:	59 83       	std	Y+1, r21	; 0x01
    215c:	22 e0       	ldi	r18, 0x02	; 2
    215e:	ae 01       	movw	r20, r28
    2160:	4f 5f       	subi	r20, 0xFF	; 255
    2162:	5f 4f       	sbci	r21, 0xFF	; 255
    2164:	fc 01       	movw	r30, r24
    2166:	80 81       	ld	r24, Z
    2168:	0e 94 fe 0f 	call	0x1ffc	; 0x1ffc <_Z9i2c_writehhPhh>
    216c:	0f 90       	pop	r0
    216e:	0f 90       	pop	r0
    2170:	df 91       	pop	r29
    2172:	cf 91       	pop	r28
    2174:	08 95       	ret

00002176 <_ZN6INA2269configureE17ina226_averages_t20ina226_busConvTime_t22ina226_shuntConvTime_t13ina226_mode_t>:
    2176:	cf 92       	push	r12
    2178:	df 92       	push	r13
    217a:	ef 92       	push	r14
    217c:	ff 92       	push	r15
    217e:	0f 93       	push	r16
    2180:	e4 2f       	mov	r30, r20
    2182:	c1 2c       	mov	r12, r1
    2184:	d1 2c       	mov	r13, r1
    2186:	30 e1       	ldi	r19, 0x10	; 16
    2188:	e3 2e       	mov	r14, r19
    218a:	32 e4       	ldi	r19, 0x42	; 66
    218c:	f3 2e       	mov	r15, r19
    218e:	dc 01       	movw	r26, r24
    2190:	1d 96       	adiw	r26, 0x0d	; 13
    2192:	cd 92       	st	X+, r12
    2194:	dd 92       	st	X+, r13
    2196:	ed 92       	st	X+, r14
    2198:	fc 92       	st	X, r15
    219a:	50 97       	sbiw	r26, 0x10	; 16
    219c:	4c ea       	ldi	r20, 0xAC	; 172
    219e:	c4 2e       	mov	r12, r20
    21a0:	45 ec       	ldi	r20, 0xC5	; 197
    21a2:	d4 2e       	mov	r13, r20
    21a4:	47 ea       	ldi	r20, 0xA7	; 167
    21a6:	e4 2e       	mov	r14, r20
    21a8:	4d e3       	ldi	r20, 0x3D	; 61
    21aa:	f4 2e       	mov	r15, r20
    21ac:	19 96       	adiw	r26, 0x09	; 9
    21ae:	cd 92       	st	X+, r12
    21b0:	dd 92       	st	X+, r13
    21b2:	ed 92       	st	X+, r14
    21b4:	fc 92       	st	X, r15
    21b6:	1c 97       	sbiw	r26, 0x0c	; 12
    21b8:	b8 e0       	ldi	r27, 0x08	; 8
    21ba:	2b 9f       	mul	r18, r27
    21bc:	a0 01       	movw	r20, r0
    21be:	11 24       	eor	r1, r1
    21c0:	40 2b       	or	r20, r16
    21c2:	20 e4       	ldi	r18, 0x40	; 64
    21c4:	e2 9f       	mul	r30, r18
    21c6:	f0 01       	movw	r30, r0
    21c8:	11 24       	eor	r1, r1
    21ca:	4e 2b       	or	r20, r30
    21cc:	5f 2b       	or	r21, r31
    21ce:	70 e0       	ldi	r23, 0x00	; 0
    21d0:	76 2f       	mov	r23, r22
    21d2:	66 27       	eor	r22, r22
    21d4:	77 0f       	add	r23, r23
    21d6:	46 2b       	or	r20, r22
    21d8:	57 2b       	or	r21, r23
    21da:	60 e0       	ldi	r22, 0x00	; 0
    21dc:	0e 94 a7 10 	call	0x214e	; 0x214e <_ZN6INA22615writeRegister16Ehj>
    21e0:	81 e0       	ldi	r24, 0x01	; 1
    21e2:	0f 91       	pop	r16
    21e4:	ff 90       	pop	r15
    21e6:	ef 90       	pop	r14
    21e8:	df 90       	pop	r13
    21ea:	cf 90       	pop	r12
    21ec:	08 95       	ret

000021ee <_ZN6INA2269calibrateEff>:
    21ee:	8f 92       	push	r8
    21f0:	9f 92       	push	r9
    21f2:	af 92       	push	r10
    21f4:	bf 92       	push	r11
    21f6:	cf 92       	push	r12
    21f8:	df 92       	push	r13
    21fa:	ef 92       	push	r14
    21fc:	ff 92       	push	r15
    21fe:	0f 93       	push	r16
    2200:	1f 93       	push	r17
    2202:	cf 93       	push	r28
    2204:	df 93       	push	r29
    2206:	ec 01       	movw	r28, r24
    2208:	4a 01       	movw	r8, r20
    220a:	5b 01       	movw	r10, r22
    220c:	c9 01       	movw	r24, r18
    220e:	b8 01       	movw	r22, r16
    2210:	89 8a       	std	Y+17, r8	; 0x11
    2212:	9a 8a       	std	Y+18, r9	; 0x12
    2214:	ab 8a       	std	Y+19, r10	; 0x13
    2216:	bc 8a       	std	Y+20, r11	; 0x14
    2218:	20 e0       	ldi	r18, 0x00	; 0
    221a:	3e ef       	ldi	r19, 0xFE	; 254
    221c:	4f ef       	ldi	r20, 0xFF	; 255
    221e:	56 e4       	ldi	r21, 0x46	; 70
    2220:	0e 94 a6 18 	call	0x314c	; 0x314c <__divsf3>
    2224:	20 e2       	ldi	r18, 0x20	; 32
    2226:	3c eb       	ldi	r19, 0xBC	; 188
    2228:	4e eb       	ldi	r20, 0xBE	; 190
    222a:	5c e4       	ldi	r21, 0x4C	; 76
    222c:	0e 94 41 1a 	call	0x3482	; 0x3482 <__mulsf3>
    2230:	0e 94 1f 19 	call	0x323e	; 0x323e <__fixunssfsi>
    2234:	80 e0       	ldi	r24, 0x00	; 0
    2236:	90 e0       	ldi	r25, 0x00	; 0
    2238:	0e 94 4e 19 	call	0x329c	; 0x329c <__floatunsisf>
    223c:	20 e2       	ldi	r18, 0x20	; 32
    223e:	3c eb       	ldi	r19, 0xBC	; 188
    2240:	4e eb       	ldi	r20, 0xBE	; 190
    2242:	5c e4       	ldi	r21, 0x4C	; 76
    2244:	0e 94 a6 18 	call	0x314c	; 0x314c <__divsf3>
    2248:	27 e1       	ldi	r18, 0x17	; 23
    224a:	37 eb       	ldi	r19, 0xB7	; 183
    224c:	41 ed       	ldi	r20, 0xD1	; 209
    224e:	58 e3       	ldi	r21, 0x38	; 56
    2250:	0e 94 a6 18 	call	0x314c	; 0x314c <__divsf3>
    2254:	0e 94 8a 18 	call	0x3114	; 0x3114 <ceil>
    2258:	27 e1       	ldi	r18, 0x17	; 23
    225a:	37 eb       	ldi	r19, 0xB7	; 183
    225c:	41 ed       	ldi	r20, 0xD1	; 209
    225e:	58 e3       	ldi	r21, 0x38	; 56
    2260:	0e 94 41 1a 	call	0x3482	; 0x3482 <__mulsf3>
    2264:	6b 01       	movw	r12, r22
    2266:	7c 01       	movw	r14, r24
    2268:	69 83       	std	Y+1, r22	; 0x01
    226a:	7a 83       	std	Y+2, r23	; 0x02
    226c:	8b 83       	std	Y+3, r24	; 0x03
    226e:	9c 83       	std	Y+4, r25	; 0x04
    2270:	20 e0       	ldi	r18, 0x00	; 0
    2272:	30 e0       	ldi	r19, 0x00	; 0
    2274:	48 ec       	ldi	r20, 0xC8	; 200
    2276:	51 e4       	ldi	r21, 0x41	; 65
    2278:	0e 94 41 1a 	call	0x3482	; 0x3482 <__mulsf3>
    227c:	6d 83       	std	Y+5, r22	; 0x05
    227e:	7e 83       	std	Y+6, r23	; 0x06
    2280:	8f 83       	std	Y+7, r24	; 0x07
    2282:	98 87       	std	Y+8, r25	; 0x08
    2284:	a7 01       	movw	r20, r14
    2286:	96 01       	movw	r18, r12
    2288:	c5 01       	movw	r24, r10
    228a:	b4 01       	movw	r22, r8
    228c:	0e 94 41 1a 	call	0x3482	; 0x3482 <__mulsf3>
    2290:	9b 01       	movw	r18, r22
    2292:	ac 01       	movw	r20, r24
    2294:	6c ea       	ldi	r22, 0xAC	; 172
    2296:	75 ec       	ldi	r23, 0xC5	; 197
    2298:	87 ea       	ldi	r24, 0xA7	; 167
    229a:	9b e3       	ldi	r25, 0x3B	; 59
    229c:	0e 94 a6 18 	call	0x314c	; 0x314c <__divsf3>
    22a0:	0e 94 1f 19 	call	0x323e	; 0x323e <__fixunssfsi>
    22a4:	ab 01       	movw	r20, r22
    22a6:	65 e0       	ldi	r22, 0x05	; 5
    22a8:	ce 01       	movw	r24, r28
    22aa:	0e 94 a7 10 	call	0x214e	; 0x214e <_ZN6INA22615writeRegister16Ehj>
    22ae:	81 e0       	ldi	r24, 0x01	; 1
    22b0:	df 91       	pop	r29
    22b2:	cf 91       	pop	r28
    22b4:	1f 91       	pop	r17
    22b6:	0f 91       	pop	r16
    22b8:	ff 90       	pop	r15
    22ba:	ef 90       	pop	r14
    22bc:	df 90       	pop	r13
    22be:	cf 90       	pop	r12
    22c0:	bf 90       	pop	r11
    22c2:	af 90       	pop	r10
    22c4:	9f 90       	pop	r9
    22c6:	8f 90       	pop	r8
    22c8:	08 95       	ret

000022ca <_Z13displayUpdatev>:
    22ca:	ef 92       	push	r14
    22cc:	ff 92       	push	r15
    22ce:	0f 93       	push	r16
    22d0:	1f 93       	push	r17
    22d2:	cf 93       	push	r28
    22d4:	df 93       	push	r29
    22d6:	00 d0       	rcall	.+0      	; 0x22d8 <_Z13displayUpdatev+0xe>
    22d8:	00 d0       	rcall	.+0      	; 0x22da <_Z13displayUpdatev+0x10>
    22da:	cd b7       	in	r28, 0x3d	; 61
    22dc:	de b7       	in	r29, 0x3e	; 62
    22de:	0e 94 f6 1a 	call	0x35ec	; 0x35ec <millis>
    22e2:	00 91 8d 06 	lds	r16, 0x068D	; 0x80068d <display_update_interval>
    22e6:	10 91 8e 06 	lds	r17, 0x068E	; 0x80068e <display_update_interval+0x1>
    22ea:	20 91 8f 06 	lds	r18, 0x068F	; 0x80068f <display_update_interval+0x2>
    22ee:	30 91 90 06 	lds	r19, 0x0690	; 0x800690 <display_update_interval+0x3>
    22f2:	dc 01       	movw	r26, r24
    22f4:	cb 01       	movw	r24, r22
    22f6:	80 1b       	sub	r24, r16
    22f8:	91 0b       	sbc	r25, r17
    22fa:	a2 0b       	sbc	r26, r18
    22fc:	b3 0b       	sbc	r27, r19
    22fe:	c3 97       	sbiw	r24, 0x33	; 51
    2300:	a1 05       	cpc	r26, r1
    2302:	b1 05       	cpc	r27, r1
    2304:	08 f4       	brcc	.+2      	; 0x2308 <_Z13displayUpdatev+0x3e>
    2306:	f4 c0       	rjmp	.+488    	; 0x24f0 <_Z13displayUpdatev+0x226>
    2308:	85 ec       	ldi	r24, 0xC5	; 197
    230a:	96 e0       	ldi	r25, 0x06	; 6
    230c:	0e 94 9b 0b 	call	0x1736	; 0x1736 <_ZN16Adafruit_SSD130612clearDisplayEv>
    2310:	61 e0       	ldi	r22, 0x01	; 1
    2312:	70 e0       	ldi	r23, 0x00	; 0
    2314:	85 ec       	ldi	r24, 0xC5	; 197
    2316:	96 e0       	ldi	r25, 0x06	; 6
    2318:	0e 94 15 07 	call	0xe2a	; 0xe2a <_ZN12Adafruit_GFX12setTextColorEj>
    231c:	62 e0       	ldi	r22, 0x02	; 2
    231e:	85 ec       	ldi	r24, 0xC5	; 197
    2320:	96 e0       	ldi	r25, 0x06	; 6
    2322:	0e 94 0f 07 	call	0xe1e	; 0xe1e <_ZN12Adafruit_GFX11setTextSizeEh>
    2326:	40 e0       	ldi	r20, 0x00	; 0
    2328:	50 e0       	ldi	r21, 0x00	; 0
    232a:	60 e0       	ldi	r22, 0x00	; 0
    232c:	70 e0       	ldi	r23, 0x00	; 0
    232e:	85 ec       	ldi	r24, 0xC5	; 197
    2330:	96 e0       	ldi	r25, 0x06	; 6
    2332:	0e 94 09 07 	call	0xe12	; 0xe12 <_ZN12Adafruit_GFX9setCursorEii>
    2336:	60 e0       	ldi	r22, 0x00	; 0
    2338:	85 ec       	ldi	r24, 0xC5	; 197
    233a:	96 e0       	ldi	r25, 0x06	; 6
    233c:	0e 94 21 07 	call	0xe42	; 0xe42 <_ZN12Adafruit_GFX11setTextWrapEh>
    2340:	19 82       	std	Y+1, r1	; 0x01
    2342:	1a 82       	std	Y+2, r1	; 0x02
    2344:	1b 82       	std	Y+3, r1	; 0x03
    2346:	1c 82       	std	Y+4, r1	; 0x04
    2348:	00 91 8b 06 	lds	r16, 0x068B	; 0x80068b <iValueSetting>
    234c:	10 91 8c 06 	lds	r17, 0x068C	; 0x80068c <iValueSetting+0x1>
    2350:	68 e6       	ldi	r22, 0x68	; 104
    2352:	75 e0       	ldi	r23, 0x05	; 5
    2354:	85 ec       	ldi	r24, 0xC5	; 197
    2356:	96 e0       	ldi	r25, 0x06	; 6
    2358:	0e 94 34 1d 	call	0x3a68	; 0x3a68 <_ZN5Print5printEPKc>
    235c:	20 e0       	ldi	r18, 0x00	; 0
    235e:	8a e0       	ldi	r24, 0x0A	; 10
    2360:	e8 2e       	mov	r14, r24
    2362:	f1 2c       	mov	r15, r1
    2364:	01 15       	cp	r16, r1
    2366:	11 05       	cpc	r17, r1
    2368:	71 f0       	breq	.+28     	; 0x2386 <_Z13displayUpdatev+0xbc>
    236a:	e1 e0       	ldi	r30, 0x01	; 1
    236c:	f0 e0       	ldi	r31, 0x00	; 0
    236e:	ec 0f       	add	r30, r28
    2370:	fd 1f       	adc	r31, r29
    2372:	e2 0f       	add	r30, r18
    2374:	f1 1d       	adc	r31, r1
    2376:	c8 01       	movw	r24, r16
    2378:	b7 01       	movw	r22, r14
    237a:	0e 94 0b 1e 	call	0x3c16	; 0x3c16 <__udivmodhi4>
    237e:	80 83       	st	Z, r24
    2380:	8b 01       	movw	r16, r22
    2382:	2f 5f       	subi	r18, 0xFF	; 255
    2384:	ef cf       	rjmp	.-34     	; 0x2364 <_Z13displayUpdatev+0x9a>
    2386:	7e 01       	movw	r14, r28
    2388:	85 e0       	ldi	r24, 0x05	; 5
    238a:	e8 0e       	add	r14, r24
    238c:	f1 1c       	adc	r15, r1
    238e:	03 e0       	ldi	r16, 0x03	; 3
    2390:	10 e0       	ldi	r17, 0x00	; 0
    2392:	80 91 85 06 	lds	r24, 0x0685	; 0x800685 <int1_count>
    2396:	90 e0       	ldi	r25, 0x00	; 0
    2398:	08 17       	cp	r16, r24
    239a:	19 07       	cpc	r17, r25
    239c:	49 f4       	brne	.+18     	; 0x23b0 <_Z13displayUpdatev+0xe6>
    239e:	41 e0       	ldi	r20, 0x01	; 1
    23a0:	50 e0       	ldi	r21, 0x00	; 0
    23a2:	60 e0       	ldi	r22, 0x00	; 0
    23a4:	70 e0       	ldi	r23, 0x00	; 0
    23a6:	85 ec       	ldi	r24, 0xC5	; 197
    23a8:	96 e0       	ldi	r25, 0x06	; 6
    23aa:	0e 94 1b 07 	call	0xe36	; 0xe36 <_ZN12Adafruit_GFX12setTextColorEjj>
    23ae:	06 c0       	rjmp	.+12     	; 0x23bc <_Z13displayUpdatev+0xf2>
    23b0:	61 e0       	ldi	r22, 0x01	; 1
    23b2:	70 e0       	ldi	r23, 0x00	; 0
    23b4:	85 ec       	ldi	r24, 0xC5	; 197
    23b6:	96 e0       	ldi	r25, 0x06	; 6
    23b8:	0e 94 15 07 	call	0xe2a	; 0xe2a <_ZN12Adafruit_GFX12setTextColorEj>
    23bc:	4a e0       	ldi	r20, 0x0A	; 10
    23be:	50 e0       	ldi	r21, 0x00	; 0
    23c0:	f7 01       	movw	r30, r14
    23c2:	62 91       	ld	r22, -Z
    23c4:	7f 01       	movw	r14, r30
    23c6:	85 ec       	ldi	r24, 0xC5	; 197
    23c8:	96 e0       	ldi	r25, 0x06	; 6
    23ca:	0e 94 e2 1c 	call	0x39c4	; 0x39c4 <_ZN5Print5printEhi>
    23ce:	03 30       	cpi	r16, 0x03	; 3
    23d0:	59 f4       	brne	.+22     	; 0x23e8 <_Z13displayUpdatev+0x11e>
    23d2:	61 e0       	ldi	r22, 0x01	; 1
    23d4:	70 e0       	ldi	r23, 0x00	; 0
    23d6:	85 ec       	ldi	r24, 0xC5	; 197
    23d8:	96 e0       	ldi	r25, 0x06	; 6
    23da:	0e 94 15 07 	call	0xe2a	; 0xe2a <_ZN12Adafruit_GFX12setTextColorEj>
    23de:	6e e2       	ldi	r22, 0x2E	; 46
    23e0:	85 ec       	ldi	r24, 0xC5	; 197
    23e2:	96 e0       	ldi	r25, 0x06	; 6
    23e4:	0e 94 0e 1c 	call	0x381c	; 0x381c <_ZN5Print5printEc>
    23e8:	01 50       	subi	r16, 0x01	; 1
    23ea:	11 09       	sbc	r17, r1
    23ec:	90 f6       	brcc	.-92     	; 0x2392 <_Z13displayUpdatev+0xc8>
    23ee:	85 ec       	ldi	r24, 0xC5	; 197
    23f0:	96 e0       	ldi	r25, 0x06	; 6
    23f2:	0e 94 16 1c 	call	0x382c	; 0x382c <_ZN5Print7printlnEv>
    23f6:	61 e0       	ldi	r22, 0x01	; 1
    23f8:	70 e0       	ldi	r23, 0x00	; 0
    23fa:	85 ec       	ldi	r24, 0xC5	; 197
    23fc:	96 e0       	ldi	r25, 0x06	; 6
    23fe:	0e 94 15 07 	call	0xe2a	; 0xe2a <_ZN12Adafruit_GFX12setTextColorEj>
    2402:	69 ea       	ldi	r22, 0xA9	; 169
    2404:	77 e0       	ldi	r23, 0x07	; 7
    2406:	85 ec       	ldi	r24, 0xC5	; 197
    2408:	96 e0       	ldi	r25, 0x06	; 6
    240a:	0e 94 eb 1b 	call	0x37d6	; 0x37d6 <_ZN5Print5printEPK19__FlashStringHelper>
    240e:	80 eb       	ldi	r24, 0xB0	; 176
    2410:	96 e0       	ldi	r25, 0x06	; 6
    2412:	0e 94 82 10 	call	0x2104	; 0x2104 <_ZN6INA22616readShuntCurrentEv>
    2416:	ab 01       	movw	r20, r22
    2418:	bc 01       	movw	r22, r24
    241a:	40 93 3f 06 	sts	0x063F, r20	; 0x80063f <iShuntVal>
    241e:	50 93 40 06 	sts	0x0640, r21	; 0x800640 <iShuntVal+0x1>
    2422:	60 93 41 06 	sts	0x0641, r22	; 0x800641 <iShuntVal+0x2>
    2426:	70 93 42 06 	sts	0x0642, r23	; 0x800642 <iShuntVal+0x3>
    242a:	23 e0       	ldi	r18, 0x03	; 3
    242c:	30 e0       	ldi	r19, 0x00	; 0
    242e:	85 ec       	ldi	r24, 0xC5	; 197
    2430:	96 e0       	ldi	r25, 0x06	; 6
    2432:	0e 94 d2 1d 	call	0x3ba4	; 0x3ba4 <_ZN5Print5printEdi>
    2436:	61 e4       	ldi	r22, 0x41	; 65
    2438:	85 ec       	ldi	r24, 0xC5	; 197
    243a:	96 e0       	ldi	r25, 0x06	; 6
    243c:	0e 94 0e 1c 	call	0x381c	; 0x381c <_ZN5Print5printEc>
    2440:	42 e2       	ldi	r20, 0x22	; 34
    2442:	50 e0       	ldi	r21, 0x00	; 0
    2444:	60 e0       	ldi	r22, 0x00	; 0
    2446:	70 e0       	ldi	r23, 0x00	; 0
    2448:	85 ec       	ldi	r24, 0xC5	; 197
    244a:	96 e0       	ldi	r25, 0x06	; 6
    244c:	0e 94 09 07 	call	0xe12	; 0xe12 <_ZN12Adafruit_GFX9setCursorEii>
    2450:	64 ea       	ldi	r22, 0xA4	; 164
    2452:	77 e0       	ldi	r23, 0x07	; 7
    2454:	85 ec       	ldi	r24, 0xC5	; 197
    2456:	96 e0       	ldi	r25, 0x06	; 6
    2458:	0e 94 eb 1b 	call	0x37d6	; 0x37d6 <_ZN5Print5printEPK19__FlashStringHelper>
    245c:	80 eb       	ldi	r24, 0xB0	; 176
    245e:	96 e0       	ldi	r25, 0x06	; 6
    2460:	0e 94 97 10 	call	0x212e	; 0x212e <_ZN6INA22614readBusVoltageEv>
    2464:	60 93 3b 06 	sts	0x063B, r22	; 0x80063b <vBusVal>
    2468:	70 93 3c 06 	sts	0x063C, r23	; 0x80063c <vBusVal+0x1>
    246c:	80 93 3d 06 	sts	0x063D, r24	; 0x80063d <vBusVal+0x2>
    2470:	90 93 3e 06 	sts	0x063E, r25	; 0x80063e <vBusVal+0x3>
    2474:	80 eb       	ldi	r24, 0xB0	; 176
    2476:	96 e0       	ldi	r25, 0x06	; 6
    2478:	0e 94 97 10 	call	0x212e	; 0x212e <_ZN6INA22614readBusVoltageEv>
    247c:	ab 01       	movw	r20, r22
    247e:	bc 01       	movw	r22, r24
    2480:	22 e0       	ldi	r18, 0x02	; 2
    2482:	30 e0       	ldi	r19, 0x00	; 0
    2484:	85 ec       	ldi	r24, 0xC5	; 197
    2486:	96 e0       	ldi	r25, 0x06	; 6
    2488:	0e 94 d2 1d 	call	0x3ba4	; 0x3ba4 <_ZN5Print5printEdi>
    248c:	66 e5       	ldi	r22, 0x56	; 86
    248e:	85 ec       	ldi	r24, 0xC5	; 197
    2490:	96 e0       	ldi	r25, 0x06	; 6
    2492:	0e 94 0e 1c 	call	0x381c	; 0x381c <_ZN5Print5printEc>
    2496:	83 e0       	ldi	r24, 0x03	; 3
    2498:	0e 94 98 1b 	call	0x3730	; 0x3730 <analogReference>
    249c:	42 e3       	ldi	r20, 0x32	; 50
    249e:	50 e0       	ldi	r21, 0x00	; 0
    24a0:	60 e0       	ldi	r22, 0x00	; 0
    24a2:	70 e0       	ldi	r23, 0x00	; 0
    24a4:	85 ec       	ldi	r24, 0xC5	; 197
    24a6:	96 e0       	ldi	r25, 0x06	; 6
    24a8:	0e 94 09 07 	call	0xe12	; 0xe12 <_ZN12Adafruit_GFX9setCursorEii>
    24ac:	6e e9       	ldi	r22, 0x9E	; 158
    24ae:	77 e0       	ldi	r23, 0x07	; 7
    24b0:	85 ec       	ldi	r24, 0xC5	; 197
    24b2:	96 e0       	ldi	r25, 0x06	; 6
    24b4:	0e 94 eb 1b 	call	0x37d6	; 0x37d6 <_ZN5Print5printEPK19__FlashStringHelper>
    24b8:	4a e0       	ldi	r20, 0x0A	; 10
    24ba:	50 e0       	ldi	r21, 0x00	; 0
    24bc:	60 91 8a 06 	lds	r22, 0x068A	; 0x80068a <temperature>
    24c0:	85 ec       	ldi	r24, 0xC5	; 197
    24c2:	96 e0       	ldi	r25, 0x06	; 6
    24c4:	0e 94 e2 1c 	call	0x39c4	; 0x39c4 <_ZN5Print5printEhi>
    24c8:	6e e6       	ldi	r22, 0x6E	; 110
    24ca:	75 e0       	ldi	r23, 0x05	; 5
    24cc:	85 ec       	ldi	r24, 0xC5	; 197
    24ce:	96 e0       	ldi	r25, 0x06	; 6
    24d0:	0e 94 34 1d 	call	0x3a68	; 0x3a68 <_ZN5Print5printEPKc>
    24d4:	85 ec       	ldi	r24, 0xC5	; 197
    24d6:	96 e0       	ldi	r25, 0x06	; 6
    24d8:	0e 94 63 0b 	call	0x16c6	; 0x16c6 <_ZN16Adafruit_SSD13067displayEv>
    24dc:	0e 94 f6 1a 	call	0x35ec	; 0x35ec <millis>
    24e0:	60 93 8d 06 	sts	0x068D, r22	; 0x80068d <display_update_interval>
    24e4:	70 93 8e 06 	sts	0x068E, r23	; 0x80068e <display_update_interval+0x1>
    24e8:	80 93 8f 06 	sts	0x068F, r24	; 0x80068f <display_update_interval+0x2>
    24ec:	90 93 90 06 	sts	0x0690, r25	; 0x800690 <display_update_interval+0x3>
    24f0:	0f 90       	pop	r0
    24f2:	0f 90       	pop	r0
    24f4:	0f 90       	pop	r0
    24f6:	0f 90       	pop	r0
    24f8:	df 91       	pop	r29
    24fa:	cf 91       	pop	r28
    24fc:	1f 91       	pop	r17
    24fe:	0f 91       	pop	r16
    2500:	ff 90       	pop	r15
    2502:	ef 90       	pop	r14
    2504:	08 95       	ret

00002506 <_Z19i2c_internal_pullupb>:
    2506:	1f 93       	push	r17
    2508:	cf 93       	push	r28
    250a:	df 93       	push	r29
    250c:	00 d0       	rcall	.+0      	; 0x250e <_Z19i2c_internal_pullupb+0x8>
    250e:	00 d0       	rcall	.+0      	; 0x2510 <_Z19i2c_internal_pullupb+0xa>
    2510:	00 d0       	rcall	.+0      	; 0x2512 <_Z19i2c_internal_pullupb+0xc>
    2512:	cd b7       	in	r28, 0x3d	; 61
    2514:	de b7       	in	r29, 0x3e	; 62
    2516:	18 2f       	mov	r17, r24
    2518:	62 e1       	ldi	r22, 0x12	; 18
    251a:	ce 01       	movw	r24, r28
    251c:	04 96       	adiw	r24, 0x04	; 4
    251e:	0e 94 02 0d 	call	0x1a04	; 0x1a04 <_ZN4GPIOC1Eh>
    2522:	63 e1       	ldi	r22, 0x13	; 19
    2524:	ce 01       	movw	r24, r28
    2526:	01 96       	adiw	r24, 0x01	; 1
    2528:	0e 94 02 0d 	call	0x1a04	; 0x1a04 <_ZN4GPIOC1Eh>
    252c:	ce 01       	movw	r24, r28
    252e:	04 96       	adiw	r24, 0x04	; 4
    2530:	11 23       	and	r17, r17
    2532:	39 f0       	breq	.+14     	; 0x2542 <_Z19i2c_internal_pullupb+0x3c>
    2534:	0e 94 d3 0c 	call	0x19a6	; 0x19a6 <_ZN4GPIO14setInputPullUpEv>
    2538:	ce 01       	movw	r24, r28
    253a:	01 96       	adiw	r24, 0x01	; 1
    253c:	0e 94 d3 0c 	call	0x19a6	; 0x19a6 <_ZN4GPIO14setInputPullUpEv>
    2540:	06 c0       	rjmp	.+12     	; 0x254e <_Z19i2c_internal_pullupb+0x48>
    2542:	0e 94 b5 0c 	call	0x196a	; 0x196a <_ZN4GPIO16setInputPullDownEv>
    2546:	ce 01       	movw	r24, r28
    2548:	04 96       	adiw	r24, 0x04	; 4
    254a:	0e 94 b5 0c 	call	0x196a	; 0x196a <_ZN4GPIO16setInputPullDownEv>
    254e:	26 96       	adiw	r28, 0x06	; 6
    2550:	0f b6       	in	r0, 0x3f	; 63
    2552:	f8 94       	cli
    2554:	de bf       	out	0x3e, r29	; 62
    2556:	0f be       	out	0x3f, r0	; 63
    2558:	cd bf       	out	0x3d, r28	; 61
    255a:	df 91       	pop	r29
    255c:	cf 91       	pop	r28
    255e:	1f 91       	pop	r17
    2560:	08 95       	ret

00002562 <__vector_2>:
    2562:	1f 92       	push	r1
    2564:	0f 92       	push	r0
    2566:	0f b6       	in	r0, 0x3f	; 63
    2568:	0f 92       	push	r0
    256a:	11 24       	eor	r1, r1
    256c:	0f 90       	pop	r0
    256e:	0f be       	out	0x3f, r0	; 63
    2570:	0f 90       	pop	r0
    2572:	1f 90       	pop	r1
    2574:	18 95       	reti

00002576 <__vector_1>:
    2576:	1f 92       	push	r1
    2578:	0f 92       	push	r0
    257a:	0f b6       	in	r0, 0x3f	; 63
    257c:	0f 92       	push	r0
    257e:	11 24       	eor	r1, r1
    2580:	2f 93       	push	r18
    2582:	3f 93       	push	r19
    2584:	4f 93       	push	r20
    2586:	5f 93       	push	r21
    2588:	6f 93       	push	r22
    258a:	7f 93       	push	r23
    258c:	8f 93       	push	r24
    258e:	9f 93       	push	r25
    2590:	af 93       	push	r26
    2592:	bf 93       	push	r27
    2594:	ef 93       	push	r30
    2596:	ff 93       	push	r31
    2598:	81 e0       	ldi	r24, 0x01	; 1
    259a:	90 91 86 06 	lds	r25, 0x0686	; 0x800686 <loadON>
    259e:	91 11       	cpse	r25, r1
    25a0:	80 e0       	ldi	r24, 0x00	; 0
    25a2:	80 93 86 06 	sts	0x0686, r24	; 0x800686 <loadON>
    25a6:	87 e8       	ldi	r24, 0x87	; 135
    25a8:	96 e0       	ldi	r25, 0x06	; 6
    25aa:	0e 94 f0 0c 	call	0x19e0	; 0x19e0 <_ZN4GPIO8getStateEv>
    25ae:	88 23       	and	r24, r24
    25b0:	d1 f3       	breq	.-12     	; 0x25a6 <__vector_1+0x30>
    25b2:	8f e1       	ldi	r24, 0x1F	; 31
    25b4:	9e e4       	ldi	r25, 0x4E	; 78
    25b6:	01 97       	sbiw	r24, 0x01	; 1
    25b8:	f1 f7       	brne	.-4      	; 0x25b6 <__vector_1+0x40>
    25ba:	00 c0       	rjmp	.+0      	; 0x25bc <__vector_1+0x46>
    25bc:	00 00       	nop
    25be:	ff 91       	pop	r31
    25c0:	ef 91       	pop	r30
    25c2:	bf 91       	pop	r27
    25c4:	af 91       	pop	r26
    25c6:	9f 91       	pop	r25
    25c8:	8f 91       	pop	r24
    25ca:	7f 91       	pop	r23
    25cc:	6f 91       	pop	r22
    25ce:	5f 91       	pop	r21
    25d0:	4f 91       	pop	r20
    25d2:	3f 91       	pop	r19
    25d4:	2f 91       	pop	r18
    25d6:	0f 90       	pop	r0
    25d8:	0f be       	out	0x3f, r0	; 63
    25da:	0f 90       	pop	r0
    25dc:	1f 90       	pop	r1
    25de:	18 95       	reti

000025e0 <__vector_3>:
    25e0:	1f 92       	push	r1
    25e2:	0f 92       	push	r0
    25e4:	0f b6       	in	r0, 0x3f	; 63
    25e6:	0f 92       	push	r0
    25e8:	11 24       	eor	r1, r1
    25ea:	2f 93       	push	r18
    25ec:	3f 93       	push	r19
    25ee:	4f 93       	push	r20
    25f0:	5f 93       	push	r21
    25f2:	6f 93       	push	r22
    25f4:	7f 93       	push	r23
    25f6:	8f 93       	push	r24
    25f8:	9f 93       	push	r25
    25fa:	af 93       	push	r26
    25fc:	bf 93       	push	r27
    25fe:	ef 93       	push	r30
    2600:	ff 93       	push	r31
    2602:	83 b1       	in	r24, 0x03	; 3
    2604:	83 70       	andi	r24, 0x03	; 3
    2606:	80 93 9f 06 	sts	0x069F, r24	; 0x80069f <data>
    260a:	90 91 a0 06 	lds	r25, 0x06A0	; 0x8006a0 <state>
    260e:	89 17       	cp	r24, r25
    2610:	d9 f0       	breq	.+54     	; 0x2648 <__vector_3+0x68>
    2612:	81 11       	cpse	r24, r1
    2614:	04 c0       	rjmp	.+8      	; 0x261e <__vector_3+0x3e>
    2616:	91 30       	cpi	r25, 0x01	; 1
    2618:	99 f4       	brne	.+38     	; 0x2640 <__vector_3+0x60>
    261a:	63 e0       	ldi	r22, 0x03	; 3
    261c:	05 c0       	rjmp	.+10     	; 0x2628 <__vector_3+0x48>
    261e:	81 30       	cpi	r24, 0x01	; 1
    2620:	41 f4       	brne	.+16     	; 0x2632 <__vector_3+0x52>
    2622:	91 11       	cpse	r25, r1
    2624:	0d c0       	rjmp	.+26     	; 0x2640 <__vector_3+0x60>
    2626:	62 e0       	ldi	r22, 0x02	; 2
    2628:	85 e9       	ldi	r24, 0x95	; 149
    262a:	96 e0       	ldi	r25, 0x06	; 6
    262c:	0e 94 08 0c 	call	0x1810	; 0x1810 <_ZN9fifo_byte5enqueEh>
    2630:	07 c0       	rjmp	.+14     	; 0x2640 <__vector_3+0x60>
    2632:	83 30       	cpi	r24, 0x03	; 3
    2634:	19 f4       	brne	.+6      	; 0x263c <__vector_3+0x5c>
    2636:	92 30       	cpi	r25, 0x02	; 2
    2638:	19 f4       	brne	.+6      	; 0x2640 <__vector_3+0x60>
    263a:	ef cf       	rjmp	.-34     	; 0x261a <__vector_3+0x3a>
    263c:	93 30       	cpi	r25, 0x03	; 3
    263e:	99 f3       	breq	.-26     	; 0x2626 <__vector_3+0x46>
    2640:	80 91 9f 06 	lds	r24, 0x069F	; 0x80069f <data>
    2644:	80 93 a0 06 	sts	0x06A0, r24	; 0x8006a0 <state>
    2648:	ff 91       	pop	r31
    264a:	ef 91       	pop	r30
    264c:	bf 91       	pop	r27
    264e:	af 91       	pop	r26
    2650:	9f 91       	pop	r25
    2652:	8f 91       	pop	r24
    2654:	7f 91       	pop	r23
    2656:	6f 91       	pop	r22
    2658:	5f 91       	pop	r21
    265a:	4f 91       	pop	r20
    265c:	3f 91       	pop	r19
    265e:	2f 91       	pop	r18
    2660:	0f 90       	pop	r0
    2662:	0f be       	out	0x3f, r0	; 63
    2664:	0f 90       	pop	r0
    2666:	1f 90       	pop	r1
    2668:	18 95       	reti

0000266a <_Z9resetPotsv>:
    266a:	cf 93       	push	r28
    266c:	df 93       	push	r29
    266e:	00 d0       	rcall	.+0      	; 0x2670 <_Z9resetPotsv+0x6>
    2670:	1f 92       	push	r1
    2672:	cd b7       	in	r28, 0x3d	; 61
    2674:	de b7       	in	r29, 0x3e	; 62
    2676:	19 82       	std	Y+1, r1	; 0x01
    2678:	1a 82       	std	Y+2, r1	; 0x02
    267a:	80 ec       	ldi	r24, 0xC0	; 192
    267c:	8b 83       	std	Y+3, r24	; 0x03
    267e:	22 e0       	ldi	r18, 0x02	; 2
    2680:	ae 01       	movw	r20, r28
    2682:	4f 5f       	subi	r20, 0xFF	; 255
    2684:	5f 4f       	sbci	r21, 0xFF	; 255
    2686:	60 e0       	ldi	r22, 0x00	; 0
    2688:	80 e5       	ldi	r24, 0x50	; 80
    268a:	0e 94 fe 0f 	call	0x1ffc	; 0x1ffc <_Z9i2c_writehhPhh>
    268e:	21 e0       	ldi	r18, 0x01	; 1
    2690:	ae 01       	movw	r20, r28
    2692:	4d 5f       	subi	r20, 0xFD	; 253
    2694:	5f 4f       	sbci	r21, 0xFF	; 255
    2696:	60 e1       	ldi	r22, 0x10	; 16
    2698:	80 e5       	ldi	r24, 0x50	; 80
    269a:	0e 94 fe 0f 	call	0x1ffc	; 0x1ffc <_Z9i2c_writehhPhh>
    269e:	0f 90       	pop	r0
    26a0:	0f 90       	pop	r0
    26a2:	0f 90       	pop	r0
    26a4:	df 91       	pop	r29
    26a6:	cf 91       	pop	r28
    26a8:	08 95       	ret

000026aa <_Z17setVoltageDividerhhh>:
    26aa:	cf 93       	push	r28
    26ac:	df 93       	push	r29
    26ae:	1f 92       	push	r1
    26b0:	cd b7       	in	r28, 0x3d	; 61
    26b2:	de b7       	in	r29, 0x3e	; 62
    26b4:	26 2f       	mov	r18, r22
    26b6:	85 36       	cpi	r24, 0x65	; 101
    26b8:	e0 f4       	brcc	.+56     	; 0x26f2 <_Z17setVoltageDividerhhh+0x48>
    26ba:	84 36       	cpi	r24, 0x64	; 100
    26bc:	19 f4       	brne	.+6      	; 0x26c4 <_Z17setVoltageDividerhhh+0x1a>
    26be:	8f ef       	ldi	r24, 0xFF	; 255
    26c0:	89 83       	std	Y+1, r24	; 0x01
    26c2:	0d c0       	rjmp	.+26     	; 0x26de <_Z17setVoltageDividerhhh+0x34>
    26c4:	81 11       	cpse	r24, r1
    26c6:	02 c0       	rjmp	.+4      	; 0x26cc <_Z17setVoltageDividerhhh+0x22>
    26c8:	19 82       	std	Y+1, r1	; 0x01
    26ca:	09 c0       	rjmp	.+18     	; 0x26de <_Z17setVoltageDividerhhh+0x34>
    26cc:	3f ef       	ldi	r19, 0xFF	; 255
    26ce:	83 9f       	mul	r24, r19
    26d0:	c0 01       	movw	r24, r0
    26d2:	11 24       	eor	r1, r1
    26d4:	64 e6       	ldi	r22, 0x64	; 100
    26d6:	70 e0       	ldi	r23, 0x00	; 0
    26d8:	0e 94 1f 1e 	call	0x3c3e	; 0x3c3e <__divmodhi4>
    26dc:	69 83       	std	Y+1, r22	; 0x01
    26de:	64 2f       	mov	r22, r20
    26e0:	82 2f       	mov	r24, r18
    26e2:	21 e0       	ldi	r18, 0x01	; 1
    26e4:	ae 01       	movw	r20, r28
    26e6:	4f 5f       	subi	r20, 0xFF	; 255
    26e8:	5f 4f       	sbci	r21, 0xFF	; 255
    26ea:	0e 94 fe 0f 	call	0x1ffc	; 0x1ffc <_Z9i2c_writehhPhh>
    26ee:	81 e0       	ldi	r24, 0x01	; 1
    26f0:	01 c0       	rjmp	.+2      	; 0x26f4 <_Z17setVoltageDividerhhh+0x4a>
    26f2:	80 e0       	ldi	r24, 0x00	; 0
    26f4:	0f 90       	pop	r0
    26f6:	df 91       	pop	r29
    26f8:	cf 91       	pop	r28
    26fa:	08 95       	ret

000026fc <_Z16getSupplyVoltagev>:
    26fc:	1f 93       	push	r17
    26fe:	cf 93       	push	r28
    2700:	df 93       	push	r29
    2702:	00 d0       	rcall	.+0      	; 0x2704 <_Z16getSupplyVoltagev+0x8>
    2704:	cd b7       	in	r28, 0x3d	; 61
    2706:	de b7       	in	r29, 0x3e	; 62
    2708:	40 e0       	ldi	r20, 0x00	; 0
    270a:	60 e5       	ldi	r22, 0x50	; 80
    270c:	84 e1       	ldi	r24, 0x14	; 20
    270e:	0e 94 55 13 	call	0x26aa	; 0x26aa <_Z17setVoltageDividerhhh>
    2712:	83 e0       	ldi	r24, 0x03	; 3
    2714:	0e 94 98 1b 	call	0x3730	; 0x3730 <analogReference>
    2718:	64 e6       	ldi	r22, 0x64	; 100
    271a:	70 e0       	ldi	r23, 0x00	; 0
    271c:	80 e0       	ldi	r24, 0x00	; 0
    271e:	90 e0       	ldi	r25, 0x00	; 0
    2720:	0e 94 04 1b 	call	0x3608	; 0x3608 <delay>
    2724:	8e e0       	ldi	r24, 0x0E	; 14
    2726:	0e 94 9b 1b 	call	0x3736	; 0x3736 <analogRead>
    272a:	9a 83       	std	Y+2, r25	; 0x02
    272c:	89 83       	std	Y+1, r24	; 0x01
    272e:	1a 82       	std	Y+2, r1	; 0x02
    2730:	19 82       	std	Y+1, r1	; 0x01
    2732:	13 e0       	ldi	r17, 0x03	; 3
    2734:	8e e0       	ldi	r24, 0x0E	; 14
    2736:	0e 94 9b 1b 	call	0x3736	; 0x3736 <analogRead>
    273a:	29 81       	ldd	r18, Y+1	; 0x01
    273c:	3a 81       	ldd	r19, Y+2	; 0x02
    273e:	82 0f       	add	r24, r18
    2740:	93 1f       	adc	r25, r19
    2742:	9a 83       	std	Y+2, r25	; 0x02
    2744:	89 83       	std	Y+1, r24	; 0x01
    2746:	11 50       	subi	r17, 0x01	; 1
    2748:	a9 f7       	brne	.-22     	; 0x2734 <_Z16getSupplyVoltagev+0x38>
    274a:	89 81       	ldd	r24, Y+1	; 0x01
    274c:	9a 81       	ldd	r25, Y+2	; 0x02
    274e:	63 e0       	ldi	r22, 0x03	; 3
    2750:	70 e0       	ldi	r23, 0x00	; 0
    2752:	0e 94 0b 1e 	call	0x3c16	; 0x3c16 <__udivmodhi4>
    2756:	7a 83       	std	Y+2, r23	; 0x02
    2758:	69 83       	std	Y+1, r22	; 0x01
    275a:	29 81       	ldd	r18, Y+1	; 0x01
    275c:	3a 81       	ldd	r19, Y+2	; 0x02
    275e:	ac e7       	ldi	r26, 0x7C	; 124
    2760:	b5 e1       	ldi	r27, 0x15	; 21
    2762:	0e 94 55 1e 	call	0x3caa	; 0x3caa <__umulhisi3>
    2766:	0e 94 4e 19 	call	0x329c	; 0x329c <__floatunsisf>
    276a:	20 e0       	ldi	r18, 0x00	; 0
    276c:	30 ec       	ldi	r19, 0xC0	; 192
    276e:	4f e7       	ldi	r20, 0x7F	; 127
    2770:	54 e4       	ldi	r21, 0x44	; 68
    2772:	0e 94 a6 18 	call	0x314c	; 0x314c <__divsf3>
    2776:	0f 90       	pop	r0
    2778:	0f 90       	pop	r0
    277a:	df 91       	pop	r29
    277c:	cf 91       	pop	r28
    277e:	1f 91       	pop	r17
    2780:	08 95       	ret

00002782 <_Z12initPlatformv>:
    2782:	0f 93       	push	r16
    2784:	1f 93       	push	r17
    2786:	cf 93       	push	r28
    2788:	0e 94 5d 1b 	call	0x36ba	; 0x36ba <init>
    278c:	40 e0       	ldi	r20, 0x00	; 0
    278e:	51 ee       	ldi	r21, 0xE1	; 225
    2790:	60 e0       	ldi	r22, 0x00	; 0
    2792:	70 e0       	ldi	r23, 0x00	; 0
    2794:	88 e8       	ldi	r24, 0x88	; 136
    2796:	95 e0       	ldi	r25, 0x05	; 5
    2798:	0e 94 21 0e 	call	0x1c42	; 0x1c42 <_ZN14HardwareSerial5beginEm>
    279c:	6b ec       	ldi	r22, 0xCB	; 203
    279e:	77 e0       	ldi	r23, 0x07	; 7
    27a0:	88 e8       	ldi	r24, 0x88	; 136
    27a2:	95 e0       	ldi	r25, 0x05	; 5
    27a4:	0e 94 eb 1b 	call	0x37d6	; 0x37d6 <_ZN5Print5printEPK19__FlashStringHelper>
    27a8:	60 ea       	ldi	r22, 0xA0	; 160
    27aa:	76 e8       	ldi	r23, 0x86	; 134
    27ac:	81 e0       	ldi	r24, 0x01	; 1
    27ae:	90 e0       	ldi	r25, 0x00	; 0
    27b0:	0e 94 e3 0e 	call	0x1dc6	; 0x1dc6 <_Z8i2c_initm>
    27b4:	81 e0       	ldi	r24, 0x01	; 1
    27b6:	0e 94 83 12 	call	0x2506	; 0x2506 <_Z19i2c_internal_pullupb>
    27ba:	60 e4       	ldi	r22, 0x40	; 64
    27bc:	80 eb       	ldi	r24, 0xB0	; 176
    27be:	96 e0       	ldi	r25, 0x06	; 6
    27c0:	0e 94 65 10 	call	0x20ca	; 0x20ca <_ZN6INA2265beginEh>
    27c4:	07 e0       	ldi	r16, 0x07	; 7
    27c6:	27 e0       	ldi	r18, 0x07	; 7
    27c8:	41 e0       	ldi	r20, 0x01	; 1
    27ca:	61 e0       	ldi	r22, 0x01	; 1
    27cc:	80 eb       	ldi	r24, 0xB0	; 176
    27ce:	96 e0       	ldi	r25, 0x06	; 6
    27d0:	0e 94 bb 10 	call	0x2176	; 0x2176 <_ZN6INA2269configureE17ina226_averages_t20ina226_busConvTime_t22ina226_shuntConvTime_t13ina226_mode_t>
    27d4:	00 e0       	ldi	r16, 0x00	; 0
    27d6:	10 e0       	ldi	r17, 0x00	; 0
    27d8:	20 e0       	ldi	r18, 0x00	; 0
    27da:	30 e4       	ldi	r19, 0x40	; 64
    27dc:	40 ec       	ldi	r20, 0xC0	; 192
    27de:	5c ee       	ldi	r21, 0xEC	; 236
    27e0:	6e e1       	ldi	r22, 0x1E	; 30
    27e2:	7d e3       	ldi	r23, 0x3D	; 61
    27e4:	80 eb       	ldi	r24, 0xB0	; 176
    27e6:	96 e0       	ldi	r25, 0x06	; 6
    27e8:	0e 94 f7 10 	call	0x21ee	; 0x21ee <_ZN6INA2269calibrateEff>
    27ec:	87 ea       	ldi	r24, 0xA7	; 167
    27ee:	96 e0       	ldi	r25, 0x06	; 6
    27f0:	0e 94 a1 0c 	call	0x1942	; 0x1942 <_ZN4GPIO8setInputEv>
    27f4:	84 ea       	ldi	r24, 0xA4	; 164
    27f6:	96 e0       	ldi	r25, 0x06	; 6
    27f8:	0e 94 a1 0c 	call	0x1942	; 0x1942 <_ZN4GPIO8setInputEv>
    27fc:	81 ea       	ldi	r24, 0xA1	; 161
    27fe:	96 e0       	ldi	r25, 0x06	; 6
    2800:	0e 94 d3 0c 	call	0x19a6	; 0x19a6 <_ZN4GPIO14setInputPullUpEv>
    2804:	83 e0       	ldi	r24, 0x03	; 3
    2806:	80 93 6b 00 	sts	0x006B, r24	; 0x80006b <__TEXT_REGION_LENGTH__+0x7e006b>
    280a:	c1 e0       	ldi	r28, 0x01	; 1
    280c:	c0 93 68 00 	sts	0x0068, r28	; 0x800068 <__TEXT_REGION_LENGTH__+0x7e0068>
    2810:	0e 94 7e 13 	call	0x26fc	; 0x26fc <_Z16getSupplyVoltagev>
    2814:	60 93 1d 05 	sts	0x051D, r22	; 0x80051d <supplyVoltage>
    2818:	70 93 1e 05 	sts	0x051E, r23	; 0x80051e <supplyVoltage+0x1>
    281c:	80 93 1f 05 	sts	0x051F, r24	; 0x80051f <supplyVoltage+0x2>
    2820:	90 93 20 05 	sts	0x0520, r25	; 0x800520 <supplyVoltage+0x3>
    2824:	60 e7       	ldi	r22, 0x70	; 112
    2826:	75 e0       	ldi	r23, 0x05	; 5
    2828:	88 e8       	ldi	r24, 0x88	; 136
    282a:	95 e0       	ldi	r25, 0x05	; 5
    282c:	0e 94 34 1d 	call	0x3a68	; 0x3a68 <_ZN5Print5printEPKc>
    2830:	40 91 1d 05 	lds	r20, 0x051D	; 0x80051d <supplyVoltage>
    2834:	50 91 1e 05 	lds	r21, 0x051E	; 0x80051e <supplyVoltage+0x1>
    2838:	60 91 1f 05 	lds	r22, 0x051F	; 0x80051f <supplyVoltage+0x2>
    283c:	70 91 20 05 	lds	r23, 0x0520	; 0x800520 <supplyVoltage+0x3>
    2840:	22 e0       	ldi	r18, 0x02	; 2
    2842:	30 e0       	ldi	r19, 0x00	; 0
    2844:	88 e8       	ldi	r24, 0x88	; 136
    2846:	95 e0       	ldi	r25, 0x05	; 5
    2848:	0e 94 d5 1d 	call	0x3baa	; 0x3baa <_ZN5Print7printlnEdi>
    284c:	8d ea       	ldi	r24, 0xAD	; 173
    284e:	96 e0       	ldi	r25, 0x06	; 6
    2850:	0e 94 79 0c 	call	0x18f2	; 0x18f2 <_ZN4GPIO3LowEv>
    2854:	8a ea       	ldi	r24, 0xAA	; 170
    2856:	96 e0       	ldi	r25, 0x06	; 6
    2858:	0e 94 79 0c 	call	0x18f2	; 0x18f2 <_ZN4GPIO3LowEv>
    285c:	87 e8       	ldi	r24, 0x87	; 135
    285e:	96 e0       	ldi	r25, 0x06	; 6
    2860:	0e 94 d3 0c 	call	0x19a6	; 0x19a6 <_ZN4GPIO14setInputPullUpEv>
    2864:	82 e0       	ldi	r24, 0x02	; 2
    2866:	80 93 69 00 	sts	0x0069, r24	; 0x800069 <__TEXT_REGION_LENGTH__+0x7e0069>
    286a:	e0 98       	cbi	0x1c, 0	; 28
    286c:	cd bb       	out	0x1d, r28	; 29
    286e:	0e 94 35 13 	call	0x266a	; 0x266a <_Z9resetPotsv>
    2872:	21 e0       	ldi	r18, 0x01	; 1
    2874:	4c e3       	ldi	r20, 0x3C	; 60
    2876:	62 e0       	ldi	r22, 0x02	; 2
    2878:	85 ec       	ldi	r24, 0xC5	; 197
    287a:	96 e0       	ldi	r25, 0x06	; 6
    287c:	0e 94 c3 0a 	call	0x1586	; 0x1586 <_ZN16Adafruit_SSD13065beginEhhb>
    2880:	61 e0       	ldi	r22, 0x01	; 1
    2882:	85 ec       	ldi	r24, 0xC5	; 197
    2884:	96 e0       	ldi	r25, 0x06	; 6
    2886:	0e 94 4a 0b 	call	0x1694	; 0x1694 <_ZN16Adafruit_SSD13063dimEh>
    288a:	85 ec       	ldi	r24, 0xC5	; 197
    288c:	96 e0       	ldi	r25, 0x06	; 6
    288e:	0e 94 9b 0b 	call	0x1736	; 0x1736 <_ZN16Adafruit_SSD130612clearDisplayEv>
    2892:	40 e0       	ldi	r20, 0x00	; 0
    2894:	50 e0       	ldi	r21, 0x00	; 0
    2896:	60 e0       	ldi	r22, 0x00	; 0
    2898:	70 e0       	ldi	r23, 0x00	; 0
    289a:	85 ec       	ldi	r24, 0xC5	; 197
    289c:	96 e0       	ldi	r25, 0x06	; 6
    289e:	0e 94 09 07 	call	0xe12	; 0xe12 <_ZN12Adafruit_GFX9setCursorEii>
    28a2:	61 e0       	ldi	r22, 0x01	; 1
    28a4:	70 e0       	ldi	r23, 0x00	; 0
    28a6:	85 ec       	ldi	r24, 0xC5	; 197
    28a8:	96 e0       	ldi	r25, 0x06	; 6
    28aa:	0e 94 15 07 	call	0xe2a	; 0xe2a <_ZN12Adafruit_GFX12setTextColorEj>
    28ae:	61 e0       	ldi	r22, 0x01	; 1
    28b0:	85 ec       	ldi	r24, 0xC5	; 197
    28b2:	96 e0       	ldi	r25, 0x06	; 6
    28b4:	0e 94 21 07 	call	0xe42	; 0xe42 <_ZN12Adafruit_GFX11setTextWrapEh>
    28b8:	62 e0       	ldi	r22, 0x02	; 2
    28ba:	85 ec       	ldi	r24, 0xC5	; 197
    28bc:	96 e0       	ldi	r25, 0x06	; 6
    28be:	0e 94 0f 07 	call	0xe1e	; 0xe1e <_ZN12Adafruit_GFX11setTextSizeEh>
    28c2:	61 ec       	ldi	r22, 0xC1	; 193
    28c4:	77 e0       	ldi	r23, 0x07	; 7
    28c6:	85 ec       	ldi	r24, 0xC5	; 197
    28c8:	96 e0       	ldi	r25, 0x06	; 6
    28ca:	0e 94 36 1c 	call	0x386c	; 0x386c <_ZN5Print7printlnEPK19__FlashStringHelper>
    28ce:	85 ec       	ldi	r24, 0xC5	; 197
    28d0:	96 e0       	ldi	r25, 0x06	; 6
    28d2:	0e 94 16 1c 	call	0x382c	; 0x382c <_ZN5Print7printlnEv>
    28d6:	66 eb       	ldi	r22, 0xB6	; 182
    28d8:	77 e0       	ldi	r23, 0x07	; 7
    28da:	85 ec       	ldi	r24, 0xC5	; 197
    28dc:	96 e0       	ldi	r25, 0x06	; 6
    28de:	0e 94 eb 1b 	call	0x37d6	; 0x37d6 <_ZN5Print5printEPK19__FlashStringHelper>
    28e2:	6e ea       	ldi	r22, 0xAE	; 174
    28e4:	77 e0       	ldi	r23, 0x07	; 7
    28e6:	85 ec       	ldi	r24, 0xC5	; 197
    28e8:	96 e0       	ldi	r25, 0x06	; 6
    28ea:	0e 94 36 1c 	call	0x386c	; 0x386c <_ZN5Print7printlnEPK19__FlashStringHelper>
    28ee:	85 ec       	ldi	r24, 0xC5	; 197
    28f0:	96 e0       	ldi	r25, 0x06	; 6
    28f2:	0e 94 63 0b 	call	0x16c6	; 0x16c6 <_ZN16Adafruit_SSD13067displayEv>
    28f6:	60 ed       	ldi	r22, 0xD0	; 208
    28f8:	77 e0       	ldi	r23, 0x07	; 7
    28fa:	80 e0       	ldi	r24, 0x00	; 0
    28fc:	90 e0       	ldi	r25, 0x00	; 0
    28fe:	cf 91       	pop	r28
    2900:	1f 91       	pop	r17
    2902:	0f 91       	pop	r16
    2904:	0c 94 04 1b 	jmp	0x3608	; 0x3608 <delay>

00002908 <_Z14setLoadCurrentj>:
    2908:	8f 92       	push	r8
    290a:	9f 92       	push	r9
    290c:	af 92       	push	r10
    290e:	bf 92       	push	r11
    2910:	cf 92       	push	r12
    2912:	df 92       	push	r13
    2914:	ef 92       	push	r14
    2916:	ff 92       	push	r15
    2918:	0f 93       	push	r16
    291a:	1f 93       	push	r17
    291c:	cf 93       	push	r28
    291e:	df 93       	push	r29
    2920:	00 d0       	rcall	.+0      	; 0x2922 <_Z14setLoadCurrentj+0x1a>
    2922:	cd b7       	in	r28, 0x3d	; 61
    2924:	de b7       	in	r29, 0x3e	; 62
    2926:	81 3d       	cpi	r24, 0xD1	; 209
    2928:	27 e0       	ldi	r18, 0x07	; 7
    292a:	92 07       	cpc	r25, r18
    292c:	08 f0       	brcs	.+2      	; 0x2930 <_Z14setLoadCurrentj+0x28>
    292e:	68 c0       	rjmp	.+208    	; 0x2a00 <_Z14setLoadCurrentj+0xf8>
    2930:	8c 01       	movw	r16, r24
    2932:	bc 01       	movw	r22, r24
    2934:	80 e0       	ldi	r24, 0x00	; 0
    2936:	90 e0       	ldi	r25, 0x00	; 0
    2938:	0e 94 4e 19 	call	0x329c	; 0x329c <__floatunsisf>
    293c:	2f e8       	ldi	r18, 0x8F	; 143
    293e:	32 ec       	ldi	r19, 0xC2	; 194
    2940:	45 e9       	ldi	r20, 0x95	; 149
    2942:	5f e3       	ldi	r21, 0x3F	; 63
    2944:	0e 94 41 1a 	call	0x3482	; 0x3482 <__mulsf3>
    2948:	0e 94 1f 19 	call	0x323e	; 0x323e <__fixunssfsi>
    294c:	05 36       	cpi	r16, 0x65	; 101
    294e:	11 05       	cpc	r17, r1
    2950:	c0 f4       	brcc	.+48     	; 0x2982 <_Z14setLoadCurrentj+0x7a>
    2952:	2f e0       	ldi	r18, 0x0F	; 15
    2954:	29 83       	std	Y+1, r18	; 0x01
    2956:	9b 01       	movw	r18, r22
    2958:	a1 e0       	ldi	r26, 0x01	; 1
    295a:	be ef       	ldi	r27, 0xFE	; 254
    295c:	0e 94 55 1e 	call	0x3caa	; 0x3caa <__umulhisi3>
    2960:	0e 94 50 19 	call	0x32a0	; 0x32a0 <__floatsisf>
    2964:	6b 01       	movw	r12, r22
    2966:	7c 01       	movw	r14, r24
    2968:	20 e0       	ldi	r18, 0x00	; 0
    296a:	30 e0       	ldi	r19, 0x00	; 0
    296c:	40 e7       	ldi	r20, 0x70	; 112
    296e:	51 e4       	ldi	r21, 0x41	; 65
    2970:	60 91 1d 05 	lds	r22, 0x051D	; 0x80051d <supplyVoltage>
    2974:	70 91 1e 05 	lds	r23, 0x051E	; 0x80051e <supplyVoltage+0x1>
    2978:	80 91 1f 05 	lds	r24, 0x051F	; 0x80051f <supplyVoltage+0x2>
    297c:	90 91 20 05 	lds	r25, 0x0520	; 0x800520 <supplyVoltage+0x3>
    2980:	29 c0       	rjmp	.+82     	; 0x29d4 <_Z14setLoadCurrentj+0xcc>
    2982:	9b 01       	movw	r18, r22
    2984:	a1 e0       	ldi	r26, 0x01	; 1
    2986:	be ef       	ldi	r27, 0xFE	; 254
    2988:	0e 94 55 1e 	call	0x3caa	; 0x3caa <__umulhisi3>
    298c:	0e 94 50 19 	call	0x32a0	; 0x32a0 <__floatsisf>
    2990:	6b 01       	movw	r12, r22
    2992:	7c 01       	movw	r14, r24
    2994:	80 90 1d 05 	lds	r8, 0x051D	; 0x80051d <supplyVoltage>
    2998:	90 90 1e 05 	lds	r9, 0x051E	; 0x80051e <supplyVoltage+0x1>
    299c:	a0 90 1f 05 	lds	r10, 0x051F	; 0x80051f <supplyVoltage+0x2>
    29a0:	b0 90 20 05 	lds	r11, 0x0520	; 0x800520 <supplyVoltage+0x3>
    29a4:	20 e0       	ldi	r18, 0x00	; 0
    29a6:	30 e0       	ldi	r19, 0x00	; 0
    29a8:	4e ef       	ldi	r20, 0xFE	; 254
    29aa:	52 e4       	ldi	r21, 0x42	; 66
    29ac:	c5 01       	movw	r24, r10
    29ae:	b4 01       	movw	r22, r8
    29b0:	0e 94 41 1a 	call	0x3482	; 0x3482 <__mulsf3>
    29b4:	9b 01       	movw	r18, r22
    29b6:	ac 01       	movw	r20, r24
    29b8:	c7 01       	movw	r24, r14
    29ba:	b6 01       	movw	r22, r12
    29bc:	0e 94 a6 18 	call	0x314c	; 0x314c <__divsf3>
    29c0:	0e 94 1f 19 	call	0x323e	; 0x323e <__fixunssfsi>
    29c4:	69 83       	std	Y+1, r22	; 0x01
    29c6:	70 e0       	ldi	r23, 0x00	; 0
    29c8:	80 e0       	ldi	r24, 0x00	; 0
    29ca:	90 e0       	ldi	r25, 0x00	; 0
    29cc:	0e 94 50 19 	call	0x32a0	; 0x32a0 <__floatsisf>
    29d0:	a5 01       	movw	r20, r10
    29d2:	94 01       	movw	r18, r8
    29d4:	0e 94 41 1a 	call	0x3482	; 0x3482 <__mulsf3>
    29d8:	9b 01       	movw	r18, r22
    29da:	ac 01       	movw	r20, r24
    29dc:	c7 01       	movw	r24, r14
    29de:	b6 01       	movw	r22, r12
    29e0:	0e 94 a6 18 	call	0x314c	; 0x314c <__divsf3>
    29e4:	0e 94 1f 19 	call	0x323e	; 0x323e <__fixunssfsi>
    29e8:	6a 83       	std	Y+2, r22	; 0x02
    29ea:	22 e0       	ldi	r18, 0x02	; 2
    29ec:	ae 01       	movw	r20, r28
    29ee:	4f 5f       	subi	r20, 0xFF	; 255
    29f0:	5f 4f       	sbci	r21, 0xFF	; 255
    29f2:	60 e0       	ldi	r22, 0x00	; 0
    29f4:	80 e5       	ldi	r24, 0x50	; 80
    29f6:	0e 94 fe 0f 	call	0x1ffc	; 0x1ffc <_Z9i2c_writehhPhh>
    29fa:	81 e0       	ldi	r24, 0x01	; 1
    29fc:	90 e0       	ldi	r25, 0x00	; 0
    29fe:	02 c0       	rjmp	.+4      	; 0x2a04 <_Z14setLoadCurrentj+0xfc>
    2a00:	80 e0       	ldi	r24, 0x00	; 0
    2a02:	90 e0       	ldi	r25, 0x00	; 0
    2a04:	0f 90       	pop	r0
    2a06:	0f 90       	pop	r0
    2a08:	df 91       	pop	r29
    2a0a:	cf 91       	pop	r28
    2a0c:	1f 91       	pop	r17
    2a0e:	0f 91       	pop	r16
    2a10:	ff 90       	pop	r15
    2a12:	ef 90       	pop	r14
    2a14:	df 90       	pop	r13
    2a16:	cf 90       	pop	r12
    2a18:	bf 90       	pop	r11
    2a1a:	af 90       	pop	r10
    2a1c:	9f 90       	pop	r9
    2a1e:	8f 90       	pop	r8
    2a20:	08 95       	ret

00002a22 <_Z8increasev>:
    2a22:	40 91 1b 05 	lds	r20, 0x051B	; 0x80051b <knob_click_value>
    2a26:	50 91 1c 05 	lds	r21, 0x051C	; 0x80051c <knob_click_value+0x1>
    2a2a:	80 91 8b 06 	lds	r24, 0x068B	; 0x80068b <iValueSetting>
    2a2e:	90 91 8c 06 	lds	r25, 0x068C	; 0x80068c <iValueSetting+0x1>
    2a32:	20 ed       	ldi	r18, 0xD0	; 208
    2a34:	37 e0       	ldi	r19, 0x07	; 7
    2a36:	24 1b       	sub	r18, r20
    2a38:	35 0b       	sbc	r19, r21
    2a3a:	82 17       	cp	r24, r18
    2a3c:	93 07       	cpc	r25, r19
    2a3e:	30 f4       	brcc	.+12     	; 0x2a4c <_Z8increasev+0x2a>
    2a40:	84 0f       	add	r24, r20
    2a42:	95 1f       	adc	r25, r21
    2a44:	90 93 8c 06 	sts	0x068C, r25	; 0x80068c <iValueSetting+0x1>
    2a48:	80 93 8b 06 	sts	0x068B, r24	; 0x80068b <iValueSetting>
    2a4c:	08 95       	ret

00002a4e <_Z8decreasev>:
    2a4e:	80 91 8b 06 	lds	r24, 0x068B	; 0x80068b <iValueSetting>
    2a52:	90 91 8c 06 	lds	r25, 0x068C	; 0x80068c <iValueSetting+0x1>
    2a56:	20 91 1b 05 	lds	r18, 0x051B	; 0x80051b <knob_click_value>
    2a5a:	30 91 1c 05 	lds	r19, 0x051C	; 0x80051c <knob_click_value+0x1>
    2a5e:	28 17       	cp	r18, r24
    2a60:	39 07       	cpc	r19, r25
    2a62:	30 f4       	brcc	.+12     	; 0x2a70 <_Z8decreasev+0x22>
    2a64:	82 1b       	sub	r24, r18
    2a66:	93 0b       	sbc	r25, r19
    2a68:	90 93 8c 06 	sts	0x068C, r25	; 0x80068c <iValueSetting+0x1>
    2a6c:	80 93 8b 06 	sts	0x068B, r24	; 0x80068b <iValueSetting>
    2a70:	08 95       	ret

00002a72 <loop>:
    2a72:	0f 93       	push	r16
    2a74:	1f 93       	push	r17
    2a76:	a8 95       	wdr
    2a78:	81 e1       	ldi	r24, 0x11	; 17
    2a7a:	0e 94 9b 1b 	call	0x3736	; 0x3736 <analogRead>
    2a7e:	bc 01       	movw	r22, r24
    2a80:	99 0f       	add	r25, r25
    2a82:	88 0b       	sbc	r24, r24
    2a84:	99 0b       	sbc	r25, r25
    2a86:	0e 94 50 19 	call	0x32a0	; 0x32a0 <__floatsisf>
    2a8a:	29 e6       	ldi	r18, 0x69	; 105
    2a8c:	32 ea       	ldi	r19, 0xA2	; 162
    2a8e:	49 e8       	ldi	r20, 0x89	; 137
    2a90:	5f e3       	ldi	r21, 0x3F	; 63
    2a92:	0e 94 41 1a 	call	0x3482	; 0x3482 <__mulsf3>
    2a96:	20 e0       	ldi	r18, 0x00	; 0
    2a98:	30 e0       	ldi	r19, 0x00	; 0
    2a9a:	40 e2       	ldi	r20, 0x20	; 32
    2a9c:	51 e4       	ldi	r21, 0x41	; 65
    2a9e:	0e 94 a6 18 	call	0x314c	; 0x314c <__divsf3>
    2aa2:	0e 94 1f 19 	call	0x323e	; 0x323e <__fixunssfsi>
    2aa6:	60 93 8a 06 	sts	0x068A, r22	; 0x80068a <temperature>
    2aaa:	80 91 86 06 	lds	r24, 0x0686	; 0x800686 <loadON>
    2aae:	88 23       	and	r24, r24
    2ab0:	09 f4       	brne	.+2      	; 0x2ab4 <loop+0x42>
    2ab2:	42 c0       	rjmp	.+132    	; 0x2b38 <loop+0xc6>
    2ab4:	80 91 1a 05 	lds	r24, 0x051A	; 0x80051a <activeLoadTempThreshold>
    2ab8:	68 17       	cp	r22, r24
    2aba:	d8 f5       	brcc	.+118    	; 0x2b32 <loop+0xc0>
    2abc:	80 91 8b 06 	lds	r24, 0x068B	; 0x80068b <iValueSetting>
    2ac0:	90 91 8c 06 	lds	r25, 0x068C	; 0x80068c <iValueSetting+0x1>
    2ac4:	20 91 39 06 	lds	r18, 0x0639	; 0x800639 <_ZZ4loopE13iValLastState>
    2ac8:	30 91 3a 06 	lds	r19, 0x063A	; 0x80063a <_ZZ4loopE13iValLastState+0x1>
    2acc:	28 17       	cp	r18, r24
    2ace:	39 07       	cpc	r19, r25
    2ad0:	31 f0       	breq	.+12     	; 0x2ade <loop+0x6c>
    2ad2:	90 93 3a 06 	sts	0x063A, r25	; 0x80063a <_ZZ4loopE13iValLastState+0x1>
    2ad6:	80 93 39 06 	sts	0x0639, r24	; 0x800639 <_ZZ4loopE13iValLastState>
    2ada:	0e 94 84 14 	call	0x2908	; 0x2908 <_Z14setLoadCurrentj>
    2ade:	80 91 8a 06 	lds	r24, 0x068A	; 0x80068a <temperature>
    2ae2:	8d 33       	cpi	r24, 0x3D	; 61
    2ae4:	08 f4       	brcc	.+2      	; 0x2ae8 <loop+0x76>
    2ae6:	7c c0       	rjmp	.+248    	; 0x2be0 <loop+0x16e>
    2ae8:	0e 94 f6 1a 	call	0x35ec	; 0x35ec <millis>
    2aec:	00 91 35 06 	lds	r16, 0x0635	; 0x800635 <_ZZ4loopE18warningLedTogDelay>
    2af0:	10 91 36 06 	lds	r17, 0x0636	; 0x800636 <_ZZ4loopE18warningLedTogDelay+0x1>
    2af4:	20 91 37 06 	lds	r18, 0x0637	; 0x800637 <_ZZ4loopE18warningLedTogDelay+0x2>
    2af8:	30 91 38 06 	lds	r19, 0x0638	; 0x800638 <_ZZ4loopE18warningLedTogDelay+0x3>
    2afc:	dc 01       	movw	r26, r24
    2afe:	cb 01       	movw	r24, r22
    2b00:	80 1b       	sub	r24, r16
    2b02:	91 0b       	sbc	r25, r17
    2b04:	a2 0b       	sbc	r26, r18
    2b06:	b3 0b       	sbc	r27, r19
    2b08:	81 39       	cpi	r24, 0x91	; 145
    2b0a:	91 40       	sbci	r25, 0x01	; 1
    2b0c:	a1 05       	cpc	r26, r1
    2b0e:	b1 05       	cpc	r27, r1
    2b10:	08 f4       	brcc	.+2      	; 0x2b14 <loop+0xa2>
    2b12:	66 c0       	rjmp	.+204    	; 0x2be0 <loop+0x16e>
    2b14:	8d ea       	ldi	r24, 0xAD	; 173
    2b16:	96 e0       	ldi	r25, 0x06	; 6
    2b18:	0e 94 8c 0c 	call	0x1918	; 0x1918 <_ZN4GPIO6toggleEv>
    2b1c:	0e 94 f6 1a 	call	0x35ec	; 0x35ec <millis>
    2b20:	60 93 35 06 	sts	0x0635, r22	; 0x800635 <_ZZ4loopE18warningLedTogDelay>
    2b24:	70 93 36 06 	sts	0x0636, r23	; 0x800636 <_ZZ4loopE18warningLedTogDelay+0x1>
    2b28:	80 93 37 06 	sts	0x0637, r24	; 0x800637 <_ZZ4loopE18warningLedTogDelay+0x2>
    2b2c:	90 93 38 06 	sts	0x0638, r25	; 0x800638 <_ZZ4loopE18warningLedTogDelay+0x3>
    2b30:	15 c0       	rjmp	.+42     	; 0x2b5c <loop+0xea>
    2b32:	10 92 86 06 	sts	0x0686, r1	; 0x800686 <loadON>
    2b36:	12 c0       	rjmp	.+36     	; 0x2b5c <loop+0xea>
    2b38:	80 91 39 06 	lds	r24, 0x0639	; 0x800639 <_ZZ4loopE13iValLastState>
    2b3c:	90 91 3a 06 	lds	r25, 0x063A	; 0x80063a <_ZZ4loopE13iValLastState+0x1>
    2b40:	89 2b       	or	r24, r25
    2b42:	41 f0       	breq	.+16     	; 0x2b54 <loop+0xe2>
    2b44:	80 e0       	ldi	r24, 0x00	; 0
    2b46:	90 e0       	ldi	r25, 0x00	; 0
    2b48:	0e 94 84 14 	call	0x2908	; 0x2908 <_Z14setLoadCurrentj>
    2b4c:	10 92 3a 06 	sts	0x063A, r1	; 0x80063a <_ZZ4loopE13iValLastState+0x1>
    2b50:	10 92 39 06 	sts	0x0639, r1	; 0x800639 <_ZZ4loopE13iValLastState>
    2b54:	8d ea       	ldi	r24, 0xAD	; 173
    2b56:	96 e0       	ldi	r25, 0x06	; 6
    2b58:	0e 94 79 0c 	call	0x18f2	; 0x18f2 <_ZN4GPIO3LowEv>
    2b5c:	81 ea       	ldi	r24, 0xA1	; 161
    2b5e:	96 e0       	ldi	r25, 0x06	; 6
    2b60:	0e 94 f0 0c 	call	0x19e0	; 0x19e0 <_ZN4GPIO8getStateEv>
    2b64:	81 11       	cpse	r24, r1
    2b66:	25 c0       	rjmp	.+74     	; 0x2bb2 <loop+0x140>
    2b68:	0e 94 f6 1a 	call	0x35ec	; 0x35ec <millis>
    2b6c:	00 91 91 06 	lds	r16, 0x0691	; 0x800691 <btn_sw_interval>
    2b70:	10 91 92 06 	lds	r17, 0x0692	; 0x800692 <btn_sw_interval+0x1>
    2b74:	20 91 93 06 	lds	r18, 0x0693	; 0x800693 <btn_sw_interval+0x2>
    2b78:	30 91 94 06 	lds	r19, 0x0694	; 0x800694 <btn_sw_interval+0x3>
    2b7c:	dc 01       	movw	r26, r24
    2b7e:	cb 01       	movw	r24, r22
    2b80:	80 1b       	sub	r24, r16
    2b82:	91 0b       	sbc	r25, r17
    2b84:	a2 0b       	sbc	r26, r18
    2b86:	b3 0b       	sbc	r27, r19
    2b88:	89 3c       	cpi	r24, 0xC9	; 201
    2b8a:	91 05       	cpc	r25, r1
    2b8c:	a1 05       	cpc	r26, r1
    2b8e:	b1 05       	cpc	r27, r1
    2b90:	08 f0       	brcs	.+2      	; 0x2b94 <loop+0x122>
    2b92:	41 c0       	rjmp	.+130    	; 0x2c16 <loop+0x1a4>
    2b94:	0e c0       	rjmp	.+28     	; 0x2bb2 <loop+0x140>
    2b96:	90 93 1c 05 	sts	0x051C, r25	; 0x80051c <knob_click_value+0x1>
    2b9a:	80 93 1b 05 	sts	0x051B, r24	; 0x80051b <knob_click_value>
    2b9e:	0e 94 f6 1a 	call	0x35ec	; 0x35ec <millis>
    2ba2:	60 93 91 06 	sts	0x0691, r22	; 0x800691 <btn_sw_interval>
    2ba6:	70 93 92 06 	sts	0x0692, r23	; 0x800692 <btn_sw_interval+0x1>
    2baa:	80 93 93 06 	sts	0x0693, r24	; 0x800693 <btn_sw_interval+0x2>
    2bae:	90 93 94 06 	sts	0x0694, r25	; 0x800694 <btn_sw_interval+0x3>
    2bb2:	85 e9       	ldi	r24, 0x95	; 149
    2bb4:	96 e0       	ldi	r25, 0x06	; 6
    2bb6:	0e 94 c2 0b 	call	0x1784	; 0x1784 <_ZN4fifo7isEmptyEv>
    2bba:	81 11       	cpse	r24, r1
    2bbc:	0d c0       	rjmp	.+26     	; 0x2bd8 <loop+0x166>
    2bbe:	85 e9       	ldi	r24, 0x95	; 149
    2bc0:	96 e0       	ldi	r25, 0x06	; 6
    2bc2:	0e 94 d6 0b 	call	0x17ac	; 0x17ac <_ZN9fifo_byte5dequeEv>
    2bc6:	83 30       	cpi	r24, 0x03	; 3
    2bc8:	19 f4       	brne	.+6      	; 0x2bd0 <loop+0x15e>
    2bca:	0e 94 27 15 	call	0x2a4e	; 0x2a4e <_Z8decreasev>
    2bce:	04 c0       	rjmp	.+8      	; 0x2bd8 <loop+0x166>
    2bd0:	82 30       	cpi	r24, 0x02	; 2
    2bd2:	11 f4       	brne	.+4      	; 0x2bd8 <loop+0x166>
    2bd4:	0e 94 11 15 	call	0x2a22	; 0x2a22 <_Z8increasev>
    2bd8:	1f 91       	pop	r17
    2bda:	0f 91       	pop	r16
    2bdc:	0c 94 65 11 	jmp	0x22ca	; 0x22ca <_Z13displayUpdatev>
    2be0:	0e 94 f6 1a 	call	0x35ec	; 0x35ec <millis>
    2be4:	00 91 35 06 	lds	r16, 0x0635	; 0x800635 <_ZZ4loopE18warningLedTogDelay>
    2be8:	10 91 36 06 	lds	r17, 0x0636	; 0x800636 <_ZZ4loopE18warningLedTogDelay+0x1>
    2bec:	20 91 37 06 	lds	r18, 0x0637	; 0x800637 <_ZZ4loopE18warningLedTogDelay+0x2>
    2bf0:	30 91 38 06 	lds	r19, 0x0638	; 0x800638 <_ZZ4loopE18warningLedTogDelay+0x3>
    2bf4:	dc 01       	movw	r26, r24
    2bf6:	cb 01       	movw	r24, r22
    2bf8:	80 1b       	sub	r24, r16
    2bfa:	91 0b       	sbc	r25, r17
    2bfc:	a2 0b       	sbc	r26, r18
    2bfe:	b3 0b       	sbc	r27, r19
    2c00:	81 39       	cpi	r24, 0x91	; 145
    2c02:	91 40       	sbci	r25, 0x01	; 1
    2c04:	a1 05       	cpc	r26, r1
    2c06:	b1 05       	cpc	r27, r1
    2c08:	08 f4       	brcc	.+2      	; 0x2c0c <loop+0x19a>
    2c0a:	a8 cf       	rjmp	.-176    	; 0x2b5c <loop+0xea>
    2c0c:	8d ea       	ldi	r24, 0xAD	; 173
    2c0e:	96 e0       	ldi	r25, 0x06	; 6
    2c10:	0e 94 67 0c 	call	0x18ce	; 0x18ce <_ZN4GPIO4HighEv>
    2c14:	a3 cf       	rjmp	.-186    	; 0x2b5c <loop+0xea>
    2c16:	80 91 85 06 	lds	r24, 0x0685	; 0x800685 <int1_count>
    2c1a:	8f 5f       	subi	r24, 0xFF	; 255
    2c1c:	84 30       	cpi	r24, 0x04	; 4
    2c1e:	99 f4       	brne	.+38     	; 0x2c46 <loop+0x1d4>
    2c20:	10 92 85 06 	sts	0x0685, r1	; 0x800685 <int1_count>
    2c24:	40 91 85 06 	lds	r20, 0x0685	; 0x800685 <int1_count>
    2c28:	81 e0       	ldi	r24, 0x01	; 1
    2c2a:	90 e0       	ldi	r25, 0x00	; 0
    2c2c:	20 e0       	ldi	r18, 0x00	; 0
    2c2e:	3a e0       	ldi	r19, 0x0A	; 10
    2c30:	24 17       	cp	r18, r20
    2c32:	09 f4       	brne	.+2      	; 0x2c36 <loop+0x1c4>
    2c34:	b0 cf       	rjmp	.-160    	; 0x2b96 <loop+0x124>
    2c36:	bc 01       	movw	r22, r24
    2c38:	36 9f       	mul	r19, r22
    2c3a:	c0 01       	movw	r24, r0
    2c3c:	37 9f       	mul	r19, r23
    2c3e:	90 0d       	add	r25, r0
    2c40:	11 24       	eor	r1, r1
    2c42:	2f 5f       	subi	r18, 0xFF	; 255
    2c44:	f5 cf       	rjmp	.-22     	; 0x2c30 <loop+0x1be>
    2c46:	80 93 85 06 	sts	0x0685, r24	; 0x800685 <int1_count>
    2c4a:	ec cf       	rjmp	.-40     	; 0x2c24 <loop+0x1b2>

00002c4c <_Z5usagev>:
    2c4c:	62 e2       	ldi	r22, 0x22	; 34
    2c4e:	77 e0       	ldi	r23, 0x07	; 7
    2c50:	88 e8       	ldi	r24, 0x88	; 136
    2c52:	95 e0       	ldi	r25, 0x05	; 5
    2c54:	0e 94 36 1c 	call	0x386c	; 0x386c <_ZN5Print7printlnEPK19__FlashStringHelper>
    2c58:	60 e0       	ldi	r22, 0x00	; 0
    2c5a:	77 e0       	ldi	r23, 0x07	; 7
    2c5c:	88 e8       	ldi	r24, 0x88	; 136
    2c5e:	95 e0       	ldi	r25, 0x05	; 5
    2c60:	0e 94 36 1c 	call	0x386c	; 0x386c <_ZN5Print7printlnEPK19__FlashStringHelper>
    2c64:	6c ed       	ldi	r22, 0xDC	; 220
    2c66:	76 e0       	ldi	r23, 0x06	; 6
    2c68:	88 e8       	ldi	r24, 0x88	; 136
    2c6a:	95 e0       	ldi	r25, 0x05	; 5
    2c6c:	0e 94 36 1c 	call	0x386c	; 0x386c <_ZN5Print7printlnEPK19__FlashStringHelper>
    2c70:	6c ea       	ldi	r22, 0xAC	; 172
    2c72:	76 e0       	ldi	r23, 0x06	; 6
    2c74:	88 e8       	ldi	r24, 0x88	; 136
    2c76:	95 e0       	ldi	r25, 0x05	; 5
    2c78:	0e 94 36 1c 	call	0x386c	; 0x386c <_ZN5Print7printlnEPK19__FlashStringHelper>
    2c7c:	60 e8       	ldi	r22, 0x80	; 128
    2c7e:	76 e0       	ldi	r23, 0x06	; 6
    2c80:	88 e8       	ldi	r24, 0x88	; 136
    2c82:	95 e0       	ldi	r25, 0x05	; 5
    2c84:	0e 94 36 1c 	call	0x386c	; 0x386c <_ZN5Print7printlnEPK19__FlashStringHelper>
    2c88:	63 e5       	ldi	r22, 0x53	; 83
    2c8a:	76 e0       	ldi	r23, 0x06	; 6
    2c8c:	88 e8       	ldi	r24, 0x88	; 136
    2c8e:	95 e0       	ldi	r25, 0x05	; 5
    2c90:	0e 94 36 1c 	call	0x386c	; 0x386c <_ZN5Print7printlnEPK19__FlashStringHelper>
    2c94:	67 e2       	ldi	r22, 0x27	; 39
    2c96:	76 e0       	ldi	r23, 0x06	; 6
    2c98:	88 e8       	ldi	r24, 0x88	; 136
    2c9a:	95 e0       	ldi	r25, 0x05	; 5
    2c9c:	0e 94 36 1c 	call	0x386c	; 0x386c <_ZN5Print7printlnEPK19__FlashStringHelper>
    2ca0:	69 ee       	ldi	r22, 0xE9	; 233
    2ca2:	75 e0       	ldi	r23, 0x05	; 5
    2ca4:	88 e8       	ldi	r24, 0x88	; 136
    2ca6:	95 e0       	ldi	r25, 0x05	; 5
    2ca8:	0e 94 36 1c 	call	0x386c	; 0x386c <_ZN5Print7printlnEPK19__FlashStringHelper>
    2cac:	6d e9       	ldi	r22, 0x9D	; 157
    2cae:	75 e0       	ldi	r23, 0x05	; 5
    2cb0:	88 e8       	ldi	r24, 0x88	; 136
    2cb2:	95 e0       	ldi	r25, 0x05	; 5
    2cb4:	0e 94 36 1c 	call	0x386c	; 0x386c <_ZN5Print7printlnEPK19__FlashStringHelper>
    2cb8:	63 e6       	ldi	r22, 0x63	; 99
    2cba:	75 e0       	ldi	r23, 0x05	; 5
    2cbc:	88 e8       	ldi	r24, 0x88	; 136
    2cbe:	95 e0       	ldi	r25, 0x05	; 5
    2cc0:	0c 94 36 1c 	jmp	0x386c	; 0x386c <_ZN5Print7printlnEPK19__FlashStringHelper>

00002cc4 <_Z7replyOKv>:
    2cc4:	64 e8       	ldi	r22, 0x84	; 132
    2cc6:	75 e0       	ldi	r23, 0x05	; 5
    2cc8:	88 e8       	ldi	r24, 0x88	; 136
    2cca:	95 e0       	ldi	r25, 0x05	; 5
    2ccc:	0c 94 e8 1d 	jmp	0x3bd0	; 0x3bd0 <_ZN5Print7printlnEPKc>

00002cd0 <_GLOBAL__sub_I_stack>:
    2cd0:	85 ec       	ldi	r24, 0xC5	; 197
    2cd2:	96 e0       	ldi	r25, 0x06	; 6
    2cd4:	0e 94 9b 0a 	call	0x1536	; 0x1536 <_ZN16Adafruit_SSD1306C1Ev>
    2cd8:	64 e0       	ldi	r22, 0x04	; 4
    2cda:	8d ea       	ldi	r24, 0xAD	; 173
    2cdc:	96 e0       	ldi	r25, 0x06	; 6
    2cde:	0e 94 02 0d 	call	0x1a04	; 0x1a04 <_ZN4GPIOC1Eh>
    2ce2:	6d e0       	ldi	r22, 0x0D	; 13
    2ce4:	8a ea       	ldi	r24, 0xAA	; 170
    2ce6:	96 e0       	ldi	r25, 0x06	; 6
    2ce8:	0e 94 02 0d 	call	0x1a04	; 0x1a04 <_ZN4GPIOC1Eh>
    2cec:	69 e0       	ldi	r22, 0x09	; 9
    2cee:	87 ea       	ldi	r24, 0xA7	; 167
    2cf0:	96 e0       	ldi	r25, 0x06	; 6
    2cf2:	0e 94 02 0d 	call	0x1a04	; 0x1a04 <_ZN4GPIOC1Eh>
    2cf6:	67 e0       	ldi	r22, 0x07	; 7
    2cf8:	84 ea       	ldi	r24, 0xA4	; 164
    2cfa:	96 e0       	ldi	r25, 0x06	; 6
    2cfc:	0e 94 02 0d 	call	0x1a04	; 0x1a04 <_ZN4GPIOC1Eh>
    2d00:	63 e0       	ldi	r22, 0x03	; 3
    2d02:	81 ea       	ldi	r24, 0xA1	; 161
    2d04:	96 e0       	ldi	r25, 0x06	; 6
    2d06:	0e 94 02 0d 	call	0x1a04	; 0x1a04 <_ZN4GPIOC1Eh>
    2d0a:	60 e1       	ldi	r22, 0x10	; 16
    2d0c:	70 e0       	ldi	r23, 0x00	; 0
    2d0e:	85 e9       	ldi	r24, 0x95	; 149
    2d10:	96 e0       	ldi	r25, 0x06	; 6
    2d12:	0e 94 cf 0b 	call	0x179e	; 0x179e <_ZN9fifo_byteC1Ei>
    2d16:	62 e0       	ldi	r22, 0x02	; 2
    2d18:	87 e8       	ldi	r24, 0x87	; 135
    2d1a:	96 e0       	ldi	r25, 0x06	; 6
    2d1c:	0c 94 02 0d 	jmp	0x1a04	; 0x1a04 <_ZN4GPIOC1Eh>

00002d20 <_GLOBAL__sub_D_stack>:
    2d20:	85 e9       	ldi	r24, 0x95	; 149
    2d22:	96 e0       	ldi	r25, 0x06	; 6
    2d24:	0c 94 3b 0c 	jmp	0x1876	; 0x1876 <_ZN9fifo_byteD1Ev>

00002d28 <_Z14readUntilTokenPchh.part.5>:
    2d28:	bf 92       	push	r11
    2d2a:	cf 92       	push	r12
    2d2c:	df 92       	push	r13
    2d2e:	ef 92       	push	r14
    2d30:	ff 92       	push	r15
    2d32:	0f 93       	push	r16
    2d34:	1f 93       	push	r17
    2d36:	cf 93       	push	r28
    2d38:	df 93       	push	r29
    2d3a:	8c 01       	movw	r16, r24
    2d3c:	b6 2e       	mov	r11, r22
    2d3e:	d4 2f       	mov	r29, r20
    2d40:	7c 01       	movw	r14, r24
    2d42:	c0 e0       	ldi	r28, 0x00	; 0
    2d44:	88 e8       	ldi	r24, 0x88	; 136
    2d46:	95 e0       	ldi	r25, 0x05	; 5
    2d48:	0e 94 04 0d 	call	0x1a08	; 0x1a08 <_ZN14HardwareSerial9availableEv>
    2d4c:	18 16       	cp	r1, r24
    2d4e:	19 06       	cpc	r1, r25
    2d50:	94 f4       	brge	.+36     	; 0x2d76 <_Z14readUntilTokenPchh.part.5+0x4e>
    2d52:	cd 17       	cp	r28, r29
    2d54:	89 f0       	breq	.+34     	; 0x2d78 <_Z14readUntilTokenPchh.part.5+0x50>
    2d56:	67 01       	movw	r12, r14
    2d58:	88 e8       	ldi	r24, 0x88	; 136
    2d5a:	95 e0       	ldi	r25, 0x05	; 5
    2d5c:	0e 94 30 0d 	call	0x1a60	; 0x1a60 <_ZN14HardwareSerial4readEv>
    2d60:	f7 01       	movw	r30, r14
    2d62:	81 93       	st	Z+, r24
    2d64:	7f 01       	movw	r14, r30
    2d66:	8b 11       	cpse	r24, r11
    2d68:	04 c0       	rjmp	.+8      	; 0x2d72 <_Z14readUntilTokenPchh.part.5+0x4a>
    2d6a:	f6 01       	movw	r30, r12
    2d6c:	10 82       	st	Z, r1
    2d6e:	8c 2f       	mov	r24, r28
    2d70:	08 c0       	rjmp	.+16     	; 0x2d82 <_Z14readUntilTokenPchh.part.5+0x5a>
    2d72:	cf 5f       	subi	r28, 0xFF	; 255
    2d74:	e7 cf       	rjmp	.-50     	; 0x2d44 <_Z14readUntilTokenPchh.part.5+0x1c>
    2d76:	dc 2f       	mov	r29, r28
    2d78:	f8 01       	movw	r30, r16
    2d7a:	ed 0f       	add	r30, r29
    2d7c:	f1 1d       	adc	r31, r1
    2d7e:	10 82       	st	Z, r1
    2d80:	80 e0       	ldi	r24, 0x00	; 0
    2d82:	df 91       	pop	r29
    2d84:	cf 91       	pop	r28
    2d86:	1f 91       	pop	r17
    2d88:	0f 91       	pop	r16
    2d8a:	ff 90       	pop	r15
    2d8c:	ef 90       	pop	r14
    2d8e:	df 90       	pop	r13
    2d90:	cf 90       	pop	r12
    2d92:	bf 90       	pop	r11
    2d94:	08 95       	ret

00002d96 <_Z13readSerialCmdv>:
    2d96:	1f 93       	push	r17
    2d98:	cf 93       	push	r28
    2d9a:	df 93       	push	r29
    2d9c:	cd b7       	in	r28, 0x3d	; 61
    2d9e:	de b7       	in	r29, 0x3e	; 62
    2da0:	27 97       	sbiw	r28, 0x07	; 7
    2da2:	0f b6       	in	r0, 0x3f	; 63
    2da4:	f8 94       	cli
    2da6:	de bf       	out	0x3e, r29	; 62
    2da8:	0f be       	out	0x3f, r0	; 63
    2daa:	cd bf       	out	0x3d, r28	; 61
    2dac:	88 e8       	ldi	r24, 0x88	; 136
    2dae:	95 e0       	ldi	r25, 0x05	; 5
    2db0:	0e 94 a5 0e 	call	0x1d4a	; 0x1d4a <_ZN14HardwareSerial16crStatusDetectedEv>
    2db4:	88 23       	and	r24, r24
    2db6:	09 f4       	brne	.+2      	; 0x2dba <_Z13readSerialCmdv+0x24>
    2db8:	13 c1       	rjmp	.+550    	; 0x2fe0 <_Z13readSerialCmdv+0x24a>
    2dba:	88 e8       	ldi	r24, 0x88	; 136
    2dbc:	95 e0       	ldi	r25, 0x05	; 5
    2dbe:	0e 94 04 0d 	call	0x1a08	; 0x1a08 <_ZN14HardwareSerial9availableEv>
    2dc2:	89 2b       	or	r24, r25
    2dc4:	09 f4       	brne	.+2      	; 0x2dc8 <_Z13readSerialCmdv+0x32>
    2dc6:	0c c1       	rjmp	.+536    	; 0x2fe0 <_Z13readSerialCmdv+0x24a>
    2dc8:	40 e4       	ldi	r20, 0x40	; 64
    2dca:	6d e0       	ldi	r22, 0x0D	; 13
    2dcc:	85 e4       	ldi	r24, 0x45	; 69
    2dce:	96 e0       	ldi	r25, 0x06	; 6
    2dd0:	0e 94 94 16 	call	0x2d28	; 0x2d28 <_Z14readUntilTokenPchh.part.5>
    2dd4:	80 93 44 06 	sts	0x0644, r24	; 0x800644 <uartBufCharCount>
    2dd8:	80 91 43 06 	lds	r24, 0x0643	; 0x800643 <case_sensitivity_status>
    2ddc:	88 23       	and	r24, r24
    2dde:	21 f0       	breq	.+8      	; 0x2de8 <_Z13readSerialCmdv+0x52>
    2de0:	85 e4       	ldi	r24, 0x45	; 69
    2de2:	96 e0       	ldi	r25, 0x06	; 6
    2de4:	0e 94 cb 1f 	call	0x3f96	; 0x3f96 <strlwr>
    2de8:	10 91 44 06 	lds	r17, 0x0644	; 0x800644 <uartBufCharCount>
    2dec:	11 23       	and	r17, r17
    2dee:	09 f4       	brne	.+2      	; 0x2df2 <_Z13readSerialCmdv+0x5c>
    2df0:	f7 c0       	rjmp	.+494    	; 0x2fe0 <_Z13readSerialCmdv+0x24a>
    2df2:	44 e0       	ldi	r20, 0x04	; 4
    2df4:	50 e0       	ldi	r21, 0x00	; 0
    2df6:	6a e1       	ldi	r22, 0x1A	; 26
    2df8:	78 e0       	ldi	r23, 0x08	; 8
    2dfa:	85 e4       	ldi	r24, 0x45	; 69
    2dfc:	96 e0       	ldi	r25, 0x06	; 6
    2dfe:	0e 94 bd 1f 	call	0x3f7a	; 0x3f7a <strncmp_P>
    2e02:	89 2b       	or	r24, r25
    2e04:	d1 f4       	brne	.+52     	; 0x2e3a <_Z13readSerialCmdv+0xa4>
    2e06:	41 2f       	mov	r20, r17
    2e08:	50 e0       	ldi	r21, 0x00	; 0
    2e0a:	44 50       	subi	r20, 0x04	; 4
    2e0c:	51 09       	sbc	r21, r1
    2e0e:	69 e4       	ldi	r22, 0x49	; 73
    2e10:	76 e0       	ldi	r23, 0x06	; 6
    2e12:	ce 01       	movw	r24, r28
    2e14:	01 96       	adiw	r24, 0x01	; 1
    2e16:	0e 94 d5 1f 	call	0x3faa	; 0x3faa <strncpy>
    2e1a:	ce 01       	movw	r24, r28
    2e1c:	01 96       	adiw	r24, 0x01	; 1
    2e1e:	0e 94 96 1f 	call	0x3f2c	; 0x3f2c <atoi>
    2e22:	81 3d       	cpi	r24, 0xD1	; 209
    2e24:	27 e0       	ldi	r18, 0x07	; 7
    2e26:	92 07       	cpc	r25, r18
    2e28:	18 f0       	brcs	.+6      	; 0x2e30 <_Z13readSerialCmdv+0x9a>
    2e2a:	66 e9       	ldi	r22, 0x96	; 150
    2e2c:	77 e0       	ldi	r23, 0x07	; 7
    2e2e:	d4 c0       	rjmp	.+424    	; 0x2fd8 <_Z13readSerialCmdv+0x242>
    2e30:	90 93 8c 06 	sts	0x068C, r25	; 0x80068c <iValueSetting+0x1>
    2e34:	80 93 8b 06 	sts	0x068B, r24	; 0x80068b <iValueSetting>
    2e38:	bf c0       	rjmp	.+382    	; 0x2fb8 <_Z13readSerialCmdv+0x222>
    2e3a:	66 e1       	ldi	r22, 0x16	; 22
    2e3c:	78 e0       	ldi	r23, 0x08	; 8
    2e3e:	85 e4       	ldi	r24, 0x45	; 69
    2e40:	96 e0       	ldi	r25, 0x06	; 6
    2e42:	0e 94 b4 1f 	call	0x3f68	; 0x3f68 <strcmp_P>
    2e46:	89 2b       	or	r24, r25
    2e48:	21 f4       	brne	.+8      	; 0x2e52 <_Z13readSerialCmdv+0xbc>
    2e4a:	81 e0       	ldi	r24, 0x01	; 1
    2e4c:	80 93 86 06 	sts	0x0686, r24	; 0x800686 <loadON>
    2e50:	b3 c0       	rjmp	.+358    	; 0x2fb8 <_Z13readSerialCmdv+0x222>
    2e52:	61 e1       	ldi	r22, 0x11	; 17
    2e54:	78 e0       	ldi	r23, 0x08	; 8
    2e56:	85 e4       	ldi	r24, 0x45	; 69
    2e58:	96 e0       	ldi	r25, 0x06	; 6
    2e5a:	0e 94 b4 1f 	call	0x3f68	; 0x3f68 <strcmp_P>
    2e5e:	89 2b       	or	r24, r25
    2e60:	19 f4       	brne	.+6      	; 0x2e68 <_Z13readSerialCmdv+0xd2>
    2e62:	10 92 86 06 	sts	0x0686, r1	; 0x800686 <loadON>
    2e66:	a8 c0       	rjmp	.+336    	; 0x2fb8 <_Z13readSerialCmdv+0x222>
    2e68:	6b e0       	ldi	r22, 0x0B	; 11
    2e6a:	78 e0       	ldi	r23, 0x08	; 8
    2e6c:	85 e4       	ldi	r24, 0x45	; 69
    2e6e:	96 e0       	ldi	r25, 0x06	; 6
    2e70:	0e 94 b4 1f 	call	0x3f68	; 0x3f68 <strcmp_P>
    2e74:	89 2b       	or	r24, r25
    2e76:	51 f4       	brne	.+20     	; 0x2e8c <_Z13readSerialCmdv+0xf6>
    2e78:	80 91 86 06 	lds	r24, 0x0686	; 0x800686 <loadON>
    2e7c:	88 23       	and	r24, r24
    2e7e:	19 f0       	breq	.+6      	; 0x2e86 <_Z13readSerialCmdv+0xf0>
    2e80:	63 e9       	ldi	r22, 0x93	; 147
    2e82:	77 e0       	ldi	r23, 0x07	; 7
    2e84:	a9 c0       	rjmp	.+338    	; 0x2fd8 <_Z13readSerialCmdv+0x242>
    2e86:	6f e8       	ldi	r22, 0x8F	; 143
    2e88:	77 e0       	ldi	r23, 0x07	; 7
    2e8a:	a6 c0       	rjmp	.+332    	; 0x2fd8 <_Z13readSerialCmdv+0x242>
    2e8c:	65 e0       	ldi	r22, 0x05	; 5
    2e8e:	78 e0       	ldi	r23, 0x08	; 8
    2e90:	85 e4       	ldi	r24, 0x45	; 69
    2e92:	96 e0       	ldi	r25, 0x06	; 6
    2e94:	0e 94 b4 1f 	call	0x3f68	; 0x3f68 <strcmp_P>
    2e98:	89 2b       	or	r24, r25
    2e9a:	99 f4       	brne	.+38     	; 0x2ec2 <_Z13readSerialCmdv+0x12c>
    2e9c:	69 e8       	ldi	r22, 0x89	; 137
    2e9e:	77 e0       	ldi	r23, 0x07	; 7
    2ea0:	88 e8       	ldi	r24, 0x88	; 136
    2ea2:	95 e0       	ldi	r25, 0x05	; 5
    2ea4:	0e 94 eb 1b 	call	0x37d6	; 0x37d6 <_ZN5Print5printEPK19__FlashStringHelper>
    2ea8:	60 91 8b 06 	lds	r22, 0x068B	; 0x80068b <iValueSetting>
    2eac:	70 91 8c 06 	lds	r23, 0x068C	; 0x80068c <iValueSetting+0x1>
    2eb0:	4a e0       	ldi	r20, 0x0A	; 10
    2eb2:	50 e0       	ldi	r21, 0x00	; 0
    2eb4:	88 e8       	ldi	r24, 0x88	; 136
    2eb6:	95 e0       	ldi	r25, 0x05	; 5
    2eb8:	0e 94 d1 1c 	call	0x39a2	; 0x39a2 <_ZN5Print5printEji>
    2ebc:	66 e8       	ldi	r22, 0x86	; 134
    2ebe:	77 e0       	ldi	r23, 0x07	; 7
    2ec0:	56 c0       	rjmp	.+172    	; 0x2f6e <_Z13readSerialCmdv+0x1d8>
    2ec2:	6f ef       	ldi	r22, 0xFF	; 255
    2ec4:	77 e0       	ldi	r23, 0x07	; 7
    2ec6:	85 e4       	ldi	r24, 0x45	; 69
    2ec8:	96 e0       	ldi	r25, 0x06	; 6
    2eca:	0e 94 b4 1f 	call	0x3f68	; 0x3f68 <strcmp_P>
    2ece:	89 2b       	or	r24, r25
    2ed0:	b9 f4       	brne	.+46     	; 0x2f00 <_Z13readSerialCmdv+0x16a>
    2ed2:	60 e8       	ldi	r22, 0x80	; 128
    2ed4:	77 e0       	ldi	r23, 0x07	; 7
    2ed6:	88 e8       	ldi	r24, 0x88	; 136
    2ed8:	95 e0       	ldi	r25, 0x05	; 5
    2eda:	0e 94 eb 1b 	call	0x37d6	; 0x37d6 <_ZN5Print5printEPK19__FlashStringHelper>
    2ede:	40 91 3f 06 	lds	r20, 0x063F	; 0x80063f <iShuntVal>
    2ee2:	50 91 40 06 	lds	r21, 0x0640	; 0x800640 <iShuntVal+0x1>
    2ee6:	60 91 41 06 	lds	r22, 0x0641	; 0x800641 <iShuntVal+0x2>
    2eea:	70 91 42 06 	lds	r23, 0x0642	; 0x800642 <iShuntVal+0x3>
    2eee:	22 e0       	ldi	r18, 0x02	; 2
    2ef0:	30 e0       	ldi	r19, 0x00	; 0
    2ef2:	88 e8       	ldi	r24, 0x88	; 136
    2ef4:	95 e0       	ldi	r25, 0x05	; 5
    2ef6:	0e 94 d2 1d 	call	0x3ba4	; 0x3ba4 <_ZN5Print5printEdi>
    2efa:	6d e7       	ldi	r22, 0x7D	; 125
    2efc:	77 e0       	ldi	r23, 0x07	; 7
    2efe:	37 c0       	rjmp	.+110    	; 0x2f6e <_Z13readSerialCmdv+0x1d8>
    2f00:	69 ef       	ldi	r22, 0xF9	; 249
    2f02:	77 e0       	ldi	r23, 0x07	; 7
    2f04:	85 e4       	ldi	r24, 0x45	; 69
    2f06:	96 e0       	ldi	r25, 0x06	; 6
    2f08:	0e 94 b4 1f 	call	0x3f68	; 0x3f68 <strcmp_P>
    2f0c:	89 2b       	or	r24, r25
    2f0e:	b9 f4       	brne	.+46     	; 0x2f3e <_Z13readSerialCmdv+0x1a8>
    2f10:	67 e7       	ldi	r22, 0x77	; 119
    2f12:	77 e0       	ldi	r23, 0x07	; 7
    2f14:	88 e8       	ldi	r24, 0x88	; 136
    2f16:	95 e0       	ldi	r25, 0x05	; 5
    2f18:	0e 94 eb 1b 	call	0x37d6	; 0x37d6 <_ZN5Print5printEPK19__FlashStringHelper>
    2f1c:	40 91 3b 06 	lds	r20, 0x063B	; 0x80063b <vBusVal>
    2f20:	50 91 3c 06 	lds	r21, 0x063C	; 0x80063c <vBusVal+0x1>
    2f24:	60 91 3d 06 	lds	r22, 0x063D	; 0x80063d <vBusVal+0x2>
    2f28:	70 91 3e 06 	lds	r23, 0x063E	; 0x80063e <vBusVal+0x3>
    2f2c:	22 e0       	ldi	r18, 0x02	; 2
    2f2e:	30 e0       	ldi	r19, 0x00	; 0
    2f30:	88 e8       	ldi	r24, 0x88	; 136
    2f32:	95 e0       	ldi	r25, 0x05	; 5
    2f34:	0e 94 d2 1d 	call	0x3ba4	; 0x3ba4 <_ZN5Print5printEdi>
    2f38:	65 e7       	ldi	r22, 0x75	; 117
    2f3a:	77 e0       	ldi	r23, 0x07	; 7
    2f3c:	18 c0       	rjmp	.+48     	; 0x2f6e <_Z13readSerialCmdv+0x1d8>
    2f3e:	63 ef       	ldi	r22, 0xF3	; 243
    2f40:	77 e0       	ldi	r23, 0x07	; 7
    2f42:	85 e4       	ldi	r24, 0x45	; 69
    2f44:	96 e0       	ldi	r25, 0x06	; 6
    2f46:	0e 94 b4 1f 	call	0x3f68	; 0x3f68 <strcmp_P>
    2f4a:	89 2b       	or	r24, r25
    2f4c:	a9 f4       	brne	.+42     	; 0x2f78 <_Z13readSerialCmdv+0x1e2>
    2f4e:	68 e6       	ldi	r22, 0x68	; 104
    2f50:	77 e0       	ldi	r23, 0x07	; 7
    2f52:	88 e8       	ldi	r24, 0x88	; 136
    2f54:	95 e0       	ldi	r25, 0x05	; 5
    2f56:	0e 94 eb 1b 	call	0x37d6	; 0x37d6 <_ZN5Print5printEPK19__FlashStringHelper>
    2f5a:	4a e0       	ldi	r20, 0x0A	; 10
    2f5c:	50 e0       	ldi	r21, 0x00	; 0
    2f5e:	60 91 8a 06 	lds	r22, 0x068A	; 0x80068a <temperature>
    2f62:	88 e8       	ldi	r24, 0x88	; 136
    2f64:	95 e0       	ldi	r25, 0x05	; 5
    2f66:	0e 94 e2 1c 	call	0x39c4	; 0x39c4 <_ZN5Print5printEhi>
    2f6a:	66 e6       	ldi	r22, 0x66	; 102
    2f6c:	77 e0       	ldi	r23, 0x07	; 7
    2f6e:	88 e8       	ldi	r24, 0x88	; 136
    2f70:	95 e0       	ldi	r25, 0x05	; 5
    2f72:	0e 94 eb 1b 	call	0x37d6	; 0x37d6 <_ZN5Print5printEPK19__FlashStringHelper>
    2f76:	34 c0       	rjmp	.+104    	; 0x2fe0 <_Z13readSerialCmdv+0x24a>
    2f78:	44 e0       	ldi	r20, 0x04	; 4
    2f7a:	50 e0       	ldi	r21, 0x00	; 0
    2f7c:	6e ee       	ldi	r22, 0xEE	; 238
    2f7e:	77 e0       	ldi	r23, 0x07	; 7
    2f80:	85 e4       	ldi	r24, 0x45	; 69
    2f82:	96 e0       	ldi	r25, 0x06	; 6
    2f84:	0e 94 bd 1f 	call	0x3f7a	; 0x3f7a <strncmp_P>
    2f88:	89 2b       	or	r24, r25
    2f8a:	c9 f4       	brne	.+50     	; 0x2fbe <_Z13readSerialCmdv+0x228>
    2f8c:	41 2f       	mov	r20, r17
    2f8e:	50 e0       	ldi	r21, 0x00	; 0
    2f90:	44 50       	subi	r20, 0x04	; 4
    2f92:	51 09       	sbc	r21, r1
    2f94:	69 e4       	ldi	r22, 0x49	; 73
    2f96:	76 e0       	ldi	r23, 0x06	; 6
    2f98:	ce 01       	movw	r24, r28
    2f9a:	01 96       	adiw	r24, 0x01	; 1
    2f9c:	0e 94 d5 1f 	call	0x3faa	; 0x3faa <strncpy>
    2fa0:	ce 01       	movw	r24, r28
    2fa2:	01 96       	adiw	r24, 0x01	; 1
    2fa4:	0e 94 96 1f 	call	0x3f2c	; 0x3f2c <atoi>
    2fa8:	87 39       	cpi	r24, 0x97	; 151
    2faa:	91 05       	cpc	r25, r1
    2fac:	18 f0       	brcs	.+6      	; 0x2fb4 <_Z13readSerialCmdv+0x21e>
    2fae:	6e e5       	ldi	r22, 0x5E	; 94
    2fb0:	77 e0       	ldi	r23, 0x07	; 7
    2fb2:	12 c0       	rjmp	.+36     	; 0x2fd8 <_Z13readSerialCmdv+0x242>
    2fb4:	80 93 1a 05 	sts	0x051A, r24	; 0x80051a <activeLoadTempThreshold>
    2fb8:	0e 94 62 16 	call	0x2cc4	; 0x2cc4 <_Z7replyOKv>
    2fbc:	11 c0       	rjmp	.+34     	; 0x2fe0 <_Z13readSerialCmdv+0x24a>
    2fbe:	69 ee       	ldi	r22, 0xE9	; 233
    2fc0:	77 e0       	ldi	r23, 0x07	; 7
    2fc2:	85 e4       	ldi	r24, 0x45	; 69
    2fc4:	96 e0       	ldi	r25, 0x06	; 6
    2fc6:	0e 94 b4 1f 	call	0x3f68	; 0x3f68 <strcmp_P>
    2fca:	89 2b       	or	r24, r25
    2fcc:	19 f4       	brne	.+6      	; 0x2fd4 <_Z13readSerialCmdv+0x23e>
    2fce:	0e 94 26 16 	call	0x2c4c	; 0x2c4c <_Z5usagev>
    2fd2:	06 c0       	rjmp	.+12     	; 0x2fe0 <_Z13readSerialCmdv+0x24a>
    2fd4:	65 e5       	ldi	r22, 0x55	; 85
    2fd6:	77 e0       	ldi	r23, 0x07	; 7
    2fd8:	88 e8       	ldi	r24, 0x88	; 136
    2fda:	95 e0       	ldi	r25, 0x05	; 5
    2fdc:	0e 94 36 1c 	call	0x386c	; 0x386c <_ZN5Print7printlnEPK19__FlashStringHelper>
    2fe0:	27 96       	adiw	r28, 0x07	; 7
    2fe2:	0f b6       	in	r0, 0x3f	; 63
    2fe4:	f8 94       	cli
    2fe6:	de bf       	out	0x3e, r29	; 62
    2fe8:	0f be       	out	0x3f, r0	; 63
    2fea:	cd bf       	out	0x3d, r28	; 61
    2fec:	df 91       	pop	r29
    2fee:	cf 91       	pop	r28
    2ff0:	1f 91       	pop	r17
    2ff2:	08 95       	ret

00002ff4 <main>:
    2ff4:	a8 95       	wdr
    2ff6:	0f b6       	in	r0, 0x3f	; 63
    2ff8:	f8 94       	cli
    2ffa:	a8 95       	wdr
    2ffc:	80 91 60 00 	lds	r24, 0x0060	; 0x800060 <__TEXT_REGION_LENGTH__+0x7e0060>
    3000:	88 61       	ori	r24, 0x18	; 24
    3002:	80 93 60 00 	sts	0x0060, r24	; 0x800060 <__TEXT_REGION_LENGTH__+0x7e0060>
    3006:	10 92 60 00 	sts	0x0060, r1	; 0x800060 <__TEXT_REGION_LENGTH__+0x7e0060>
    300a:	0f be       	out	0x3f, r0	; 63
    300c:	98 e2       	ldi	r25, 0x28	; 40
    300e:	88 e1       	ldi	r24, 0x18	; 24
    3010:	0f b6       	in	r0, 0x3f	; 63
    3012:	f8 94       	cli
    3014:	a8 95       	wdr
    3016:	80 93 60 00 	sts	0x0060, r24	; 0x800060 <__TEXT_REGION_LENGTH__+0x7e0060>
    301a:	0f be       	out	0x3f, r0	; 63
    301c:	90 93 60 00 	sts	0x0060, r25	; 0x800060 <__TEXT_REGION_LENGTH__+0x7e0060>
    3020:	0e 94 c1 13 	call	0x2782	; 0x2782 <_Z12initPlatformv>
    3024:	cd ed       	ldi	r28, 0xDD	; 221
    3026:	dd e0       	ldi	r29, 0x0D	; 13
    3028:	0e 94 cb 16 	call	0x2d96	; 0x2d96 <_Z13readSerialCmdv>
    302c:	0e 94 39 15 	call	0x2a72	; 0x2a72 <loop>
    3030:	20 97       	sbiw	r28, 0x00	; 0
    3032:	d1 f3       	breq	.-12     	; 0x3028 <main+0x34>
    3034:	0e 94 dd 0d 	call	0x1bba	; 0x1bba <_Z14serialEventRunv>
    3038:	f7 cf       	rjmp	.-18     	; 0x3028 <main+0x34>

0000303a <__subsf3>:
    303a:	50 58       	subi	r21, 0x80	; 128

0000303c <__addsf3>:
    303c:	bb 27       	eor	r27, r27
    303e:	aa 27       	eor	r26, r26
    3040:	0e 94 35 18 	call	0x306a	; 0x306a <__addsf3x>
    3044:	0c 94 ef 19 	jmp	0x33de	; 0x33de <__fp_round>
    3048:	0e 94 e1 19 	call	0x33c2	; 0x33c2 <__fp_pscA>
    304c:	38 f0       	brcs	.+14     	; 0x305c <__addsf3+0x20>
    304e:	0e 94 e8 19 	call	0x33d0	; 0x33d0 <__fp_pscB>
    3052:	20 f0       	brcs	.+8      	; 0x305c <__addsf3+0x20>
    3054:	39 f4       	brne	.+14     	; 0x3064 <__addsf3+0x28>
    3056:	9f 3f       	cpi	r25, 0xFF	; 255
    3058:	19 f4       	brne	.+6      	; 0x3060 <__addsf3+0x24>
    305a:	26 f4       	brtc	.+8      	; 0x3064 <__addsf3+0x28>
    305c:	0c 94 de 19 	jmp	0x33bc	; 0x33bc <__fp_nan>
    3060:	0e f4       	brtc	.+2      	; 0x3064 <__addsf3+0x28>
    3062:	e0 95       	com	r30
    3064:	e7 fb       	bst	r30, 7
    3066:	0c 94 af 19 	jmp	0x335e	; 0x335e <__fp_inf>

0000306a <__addsf3x>:
    306a:	e9 2f       	mov	r30, r25
    306c:	0e 94 00 1a 	call	0x3400	; 0x3400 <__fp_split3>
    3070:	58 f3       	brcs	.-42     	; 0x3048 <__addsf3+0xc>
    3072:	ba 17       	cp	r27, r26
    3074:	62 07       	cpc	r22, r18
    3076:	73 07       	cpc	r23, r19
    3078:	84 07       	cpc	r24, r20
    307a:	95 07       	cpc	r25, r21
    307c:	20 f0       	brcs	.+8      	; 0x3086 <__addsf3x+0x1c>
    307e:	79 f4       	brne	.+30     	; 0x309e <__addsf3x+0x34>
    3080:	a6 f5       	brtc	.+104    	; 0x30ea <__addsf3x+0x80>
    3082:	0c 94 3a 1a 	jmp	0x3474	; 0x3474 <__fp_zero>
    3086:	0e f4       	brtc	.+2      	; 0x308a <__addsf3x+0x20>
    3088:	e0 95       	com	r30
    308a:	0b 2e       	mov	r0, r27
    308c:	ba 2f       	mov	r27, r26
    308e:	a0 2d       	mov	r26, r0
    3090:	0b 01       	movw	r0, r22
    3092:	b9 01       	movw	r22, r18
    3094:	90 01       	movw	r18, r0
    3096:	0c 01       	movw	r0, r24
    3098:	ca 01       	movw	r24, r20
    309a:	a0 01       	movw	r20, r0
    309c:	11 24       	eor	r1, r1
    309e:	ff 27       	eor	r31, r31
    30a0:	59 1b       	sub	r21, r25
    30a2:	99 f0       	breq	.+38     	; 0x30ca <__addsf3x+0x60>
    30a4:	59 3f       	cpi	r21, 0xF9	; 249
    30a6:	50 f4       	brcc	.+20     	; 0x30bc <__addsf3x+0x52>
    30a8:	50 3e       	cpi	r21, 0xE0	; 224
    30aa:	68 f1       	brcs	.+90     	; 0x3106 <__addsf3x+0x9c>
    30ac:	1a 16       	cp	r1, r26
    30ae:	f0 40       	sbci	r31, 0x00	; 0
    30b0:	a2 2f       	mov	r26, r18
    30b2:	23 2f       	mov	r18, r19
    30b4:	34 2f       	mov	r19, r20
    30b6:	44 27       	eor	r20, r20
    30b8:	58 5f       	subi	r21, 0xF8	; 248
    30ba:	f3 cf       	rjmp	.-26     	; 0x30a2 <__addsf3x+0x38>
    30bc:	46 95       	lsr	r20
    30be:	37 95       	ror	r19
    30c0:	27 95       	ror	r18
    30c2:	a7 95       	ror	r26
    30c4:	f0 40       	sbci	r31, 0x00	; 0
    30c6:	53 95       	inc	r21
    30c8:	c9 f7       	brne	.-14     	; 0x30bc <__addsf3x+0x52>
    30ca:	7e f4       	brtc	.+30     	; 0x30ea <__addsf3x+0x80>
    30cc:	1f 16       	cp	r1, r31
    30ce:	ba 0b       	sbc	r27, r26
    30d0:	62 0b       	sbc	r22, r18
    30d2:	73 0b       	sbc	r23, r19
    30d4:	84 0b       	sbc	r24, r20
    30d6:	ba f0       	brmi	.+46     	; 0x3106 <__addsf3x+0x9c>
    30d8:	91 50       	subi	r25, 0x01	; 1
    30da:	a1 f0       	breq	.+40     	; 0x3104 <__addsf3x+0x9a>
    30dc:	ff 0f       	add	r31, r31
    30de:	bb 1f       	adc	r27, r27
    30e0:	66 1f       	adc	r22, r22
    30e2:	77 1f       	adc	r23, r23
    30e4:	88 1f       	adc	r24, r24
    30e6:	c2 f7       	brpl	.-16     	; 0x30d8 <__addsf3x+0x6e>
    30e8:	0e c0       	rjmp	.+28     	; 0x3106 <__addsf3x+0x9c>
    30ea:	ba 0f       	add	r27, r26
    30ec:	62 1f       	adc	r22, r18
    30ee:	73 1f       	adc	r23, r19
    30f0:	84 1f       	adc	r24, r20
    30f2:	48 f4       	brcc	.+18     	; 0x3106 <__addsf3x+0x9c>
    30f4:	87 95       	ror	r24
    30f6:	77 95       	ror	r23
    30f8:	67 95       	ror	r22
    30fa:	b7 95       	ror	r27
    30fc:	f7 95       	ror	r31
    30fe:	9e 3f       	cpi	r25, 0xFE	; 254
    3100:	08 f0       	brcs	.+2      	; 0x3104 <__addsf3x+0x9a>
    3102:	b0 cf       	rjmp	.-160    	; 0x3064 <__addsf3+0x28>
    3104:	93 95       	inc	r25
    3106:	88 0f       	add	r24, r24
    3108:	08 f0       	brcs	.+2      	; 0x310c <__addsf3x+0xa2>
    310a:	99 27       	eor	r25, r25
    310c:	ee 0f       	add	r30, r30
    310e:	97 95       	ror	r25
    3110:	87 95       	ror	r24
    3112:	08 95       	ret

00003114 <ceil>:
    3114:	0e 94 22 1a 	call	0x3444	; 0x3444 <__fp_trunc>
    3118:	90 f0       	brcs	.+36     	; 0x313e <ceil+0x2a>
    311a:	9f 37       	cpi	r25, 0x7F	; 127
    311c:	48 f4       	brcc	.+18     	; 0x3130 <ceil+0x1c>
    311e:	91 11       	cpse	r25, r1
    3120:	16 f4       	brtc	.+4      	; 0x3126 <ceil+0x12>
    3122:	0c 94 3b 1a 	jmp	0x3476	; 0x3476 <__fp_szero>
    3126:	60 e0       	ldi	r22, 0x00	; 0
    3128:	70 e0       	ldi	r23, 0x00	; 0
    312a:	80 e8       	ldi	r24, 0x80	; 128
    312c:	9f e3       	ldi	r25, 0x3F	; 63
    312e:	08 95       	ret
    3130:	26 f0       	brts	.+8      	; 0x313a <ceil+0x26>
    3132:	1b 16       	cp	r1, r27
    3134:	61 1d       	adc	r22, r1
    3136:	71 1d       	adc	r23, r1
    3138:	81 1d       	adc	r24, r1
    313a:	0c 94 b5 19 	jmp	0x336a	; 0x336a <__fp_mintl>
    313e:	0c 94 d0 19 	jmp	0x33a0	; 0x33a0 <__fp_mpack>

00003142 <__cmpsf2>:
    3142:	0e 94 8b 19 	call	0x3316	; 0x3316 <__fp_cmp>
    3146:	08 f4       	brcc	.+2      	; 0x314a <__cmpsf2+0x8>
    3148:	81 e0       	ldi	r24, 0x01	; 1
    314a:	08 95       	ret

0000314c <__divsf3>:
    314c:	0e 94 ba 18 	call	0x3174	; 0x3174 <__divsf3x>
    3150:	0c 94 ef 19 	jmp	0x33de	; 0x33de <__fp_round>
    3154:	0e 94 e8 19 	call	0x33d0	; 0x33d0 <__fp_pscB>
    3158:	58 f0       	brcs	.+22     	; 0x3170 <__divsf3+0x24>
    315a:	0e 94 e1 19 	call	0x33c2	; 0x33c2 <__fp_pscA>
    315e:	40 f0       	brcs	.+16     	; 0x3170 <__divsf3+0x24>
    3160:	29 f4       	brne	.+10     	; 0x316c <__divsf3+0x20>
    3162:	5f 3f       	cpi	r21, 0xFF	; 255
    3164:	29 f0       	breq	.+10     	; 0x3170 <__divsf3+0x24>
    3166:	0c 94 af 19 	jmp	0x335e	; 0x335e <__fp_inf>
    316a:	51 11       	cpse	r21, r1
    316c:	0c 94 3b 1a 	jmp	0x3476	; 0x3476 <__fp_szero>
    3170:	0c 94 de 19 	jmp	0x33bc	; 0x33bc <__fp_nan>

00003174 <__divsf3x>:
    3174:	0e 94 00 1a 	call	0x3400	; 0x3400 <__fp_split3>
    3178:	68 f3       	brcs	.-38     	; 0x3154 <__divsf3+0x8>

0000317a <__divsf3_pse>:
    317a:	99 23       	and	r25, r25
    317c:	b1 f3       	breq	.-20     	; 0x316a <__divsf3+0x1e>
    317e:	55 23       	and	r21, r21
    3180:	91 f3       	breq	.-28     	; 0x3166 <__divsf3+0x1a>
    3182:	95 1b       	sub	r25, r21
    3184:	55 0b       	sbc	r21, r21
    3186:	bb 27       	eor	r27, r27
    3188:	aa 27       	eor	r26, r26
    318a:	62 17       	cp	r22, r18
    318c:	73 07       	cpc	r23, r19
    318e:	84 07       	cpc	r24, r20
    3190:	38 f0       	brcs	.+14     	; 0x31a0 <__divsf3_pse+0x26>
    3192:	9f 5f       	subi	r25, 0xFF	; 255
    3194:	5f 4f       	sbci	r21, 0xFF	; 255
    3196:	22 0f       	add	r18, r18
    3198:	33 1f       	adc	r19, r19
    319a:	44 1f       	adc	r20, r20
    319c:	aa 1f       	adc	r26, r26
    319e:	a9 f3       	breq	.-22     	; 0x318a <__divsf3_pse+0x10>
    31a0:	35 d0       	rcall	.+106    	; 0x320c <__divsf3_pse+0x92>
    31a2:	0e 2e       	mov	r0, r30
    31a4:	3a f0       	brmi	.+14     	; 0x31b4 <__divsf3_pse+0x3a>
    31a6:	e0 e8       	ldi	r30, 0x80	; 128
    31a8:	32 d0       	rcall	.+100    	; 0x320e <__divsf3_pse+0x94>
    31aa:	91 50       	subi	r25, 0x01	; 1
    31ac:	50 40       	sbci	r21, 0x00	; 0
    31ae:	e6 95       	lsr	r30
    31b0:	00 1c       	adc	r0, r0
    31b2:	ca f7       	brpl	.-14     	; 0x31a6 <__divsf3_pse+0x2c>
    31b4:	2b d0       	rcall	.+86     	; 0x320c <__divsf3_pse+0x92>
    31b6:	fe 2f       	mov	r31, r30
    31b8:	29 d0       	rcall	.+82     	; 0x320c <__divsf3_pse+0x92>
    31ba:	66 0f       	add	r22, r22
    31bc:	77 1f       	adc	r23, r23
    31be:	88 1f       	adc	r24, r24
    31c0:	bb 1f       	adc	r27, r27
    31c2:	26 17       	cp	r18, r22
    31c4:	37 07       	cpc	r19, r23
    31c6:	48 07       	cpc	r20, r24
    31c8:	ab 07       	cpc	r26, r27
    31ca:	b0 e8       	ldi	r27, 0x80	; 128
    31cc:	09 f0       	breq	.+2      	; 0x31d0 <__divsf3_pse+0x56>
    31ce:	bb 0b       	sbc	r27, r27
    31d0:	80 2d       	mov	r24, r0
    31d2:	bf 01       	movw	r22, r30
    31d4:	ff 27       	eor	r31, r31
    31d6:	93 58       	subi	r25, 0x83	; 131
    31d8:	5f 4f       	sbci	r21, 0xFF	; 255
    31da:	3a f0       	brmi	.+14     	; 0x31ea <__divsf3_pse+0x70>
    31dc:	9e 3f       	cpi	r25, 0xFE	; 254
    31de:	51 05       	cpc	r21, r1
    31e0:	78 f0       	brcs	.+30     	; 0x3200 <__divsf3_pse+0x86>
    31e2:	0c 94 af 19 	jmp	0x335e	; 0x335e <__fp_inf>
    31e6:	0c 94 3b 1a 	jmp	0x3476	; 0x3476 <__fp_szero>
    31ea:	5f 3f       	cpi	r21, 0xFF	; 255
    31ec:	e4 f3       	brlt	.-8      	; 0x31e6 <__divsf3_pse+0x6c>
    31ee:	98 3e       	cpi	r25, 0xE8	; 232
    31f0:	d4 f3       	brlt	.-12     	; 0x31e6 <__divsf3_pse+0x6c>
    31f2:	86 95       	lsr	r24
    31f4:	77 95       	ror	r23
    31f6:	67 95       	ror	r22
    31f8:	b7 95       	ror	r27
    31fa:	f7 95       	ror	r31
    31fc:	9f 5f       	subi	r25, 0xFF	; 255
    31fe:	c9 f7       	brne	.-14     	; 0x31f2 <__divsf3_pse+0x78>
    3200:	88 0f       	add	r24, r24
    3202:	91 1d       	adc	r25, r1
    3204:	96 95       	lsr	r25
    3206:	87 95       	ror	r24
    3208:	97 f9       	bld	r25, 7
    320a:	08 95       	ret
    320c:	e1 e0       	ldi	r30, 0x01	; 1
    320e:	66 0f       	add	r22, r22
    3210:	77 1f       	adc	r23, r23
    3212:	88 1f       	adc	r24, r24
    3214:	bb 1f       	adc	r27, r27
    3216:	62 17       	cp	r22, r18
    3218:	73 07       	cpc	r23, r19
    321a:	84 07       	cpc	r24, r20
    321c:	ba 07       	cpc	r27, r26
    321e:	20 f0       	brcs	.+8      	; 0x3228 <__divsf3_pse+0xae>
    3220:	62 1b       	sub	r22, r18
    3222:	73 0b       	sbc	r23, r19
    3224:	84 0b       	sbc	r24, r20
    3226:	ba 0b       	sbc	r27, r26
    3228:	ee 1f       	adc	r30, r30
    322a:	88 f7       	brcc	.-30     	; 0x320e <__divsf3_pse+0x94>
    322c:	e0 95       	com	r30
    322e:	08 95       	ret

00003230 <__fixsfsi>:
    3230:	0e 94 1f 19 	call	0x323e	; 0x323e <__fixunssfsi>
    3234:	68 94       	set
    3236:	b1 11       	cpse	r27, r1
    3238:	0c 94 3b 1a 	jmp	0x3476	; 0x3476 <__fp_szero>
    323c:	08 95       	ret

0000323e <__fixunssfsi>:
    323e:	0e 94 08 1a 	call	0x3410	; 0x3410 <__fp_splitA>
    3242:	88 f0       	brcs	.+34     	; 0x3266 <__fixunssfsi+0x28>
    3244:	9f 57       	subi	r25, 0x7F	; 127
    3246:	98 f0       	brcs	.+38     	; 0x326e <__fixunssfsi+0x30>
    3248:	b9 2f       	mov	r27, r25
    324a:	99 27       	eor	r25, r25
    324c:	b7 51       	subi	r27, 0x17	; 23
    324e:	b0 f0       	brcs	.+44     	; 0x327c <__fixunssfsi+0x3e>
    3250:	e1 f0       	breq	.+56     	; 0x328a <__fixunssfsi+0x4c>
    3252:	66 0f       	add	r22, r22
    3254:	77 1f       	adc	r23, r23
    3256:	88 1f       	adc	r24, r24
    3258:	99 1f       	adc	r25, r25
    325a:	1a f0       	brmi	.+6      	; 0x3262 <__fixunssfsi+0x24>
    325c:	ba 95       	dec	r27
    325e:	c9 f7       	brne	.-14     	; 0x3252 <__fixunssfsi+0x14>
    3260:	14 c0       	rjmp	.+40     	; 0x328a <__fixunssfsi+0x4c>
    3262:	b1 30       	cpi	r27, 0x01	; 1
    3264:	91 f0       	breq	.+36     	; 0x328a <__fixunssfsi+0x4c>
    3266:	0e 94 3a 1a 	call	0x3474	; 0x3474 <__fp_zero>
    326a:	b1 e0       	ldi	r27, 0x01	; 1
    326c:	08 95       	ret
    326e:	0c 94 3a 1a 	jmp	0x3474	; 0x3474 <__fp_zero>
    3272:	67 2f       	mov	r22, r23
    3274:	78 2f       	mov	r23, r24
    3276:	88 27       	eor	r24, r24
    3278:	b8 5f       	subi	r27, 0xF8	; 248
    327a:	39 f0       	breq	.+14     	; 0x328a <__fixunssfsi+0x4c>
    327c:	b9 3f       	cpi	r27, 0xF9	; 249
    327e:	cc f3       	brlt	.-14     	; 0x3272 <__fixunssfsi+0x34>
    3280:	86 95       	lsr	r24
    3282:	77 95       	ror	r23
    3284:	67 95       	ror	r22
    3286:	b3 95       	inc	r27
    3288:	d9 f7       	brne	.-10     	; 0x3280 <__fixunssfsi+0x42>
    328a:	3e f4       	brtc	.+14     	; 0x329a <__fixunssfsi+0x5c>
    328c:	90 95       	com	r25
    328e:	80 95       	com	r24
    3290:	70 95       	com	r23
    3292:	61 95       	neg	r22
    3294:	7f 4f       	sbci	r23, 0xFF	; 255
    3296:	8f 4f       	sbci	r24, 0xFF	; 255
    3298:	9f 4f       	sbci	r25, 0xFF	; 255
    329a:	08 95       	ret

0000329c <__floatunsisf>:
    329c:	e8 94       	clt
    329e:	09 c0       	rjmp	.+18     	; 0x32b2 <__floatsisf+0x12>

000032a0 <__floatsisf>:
    32a0:	97 fb       	bst	r25, 7
    32a2:	3e f4       	brtc	.+14     	; 0x32b2 <__floatsisf+0x12>
    32a4:	90 95       	com	r25
    32a6:	80 95       	com	r24
    32a8:	70 95       	com	r23
    32aa:	61 95       	neg	r22
    32ac:	7f 4f       	sbci	r23, 0xFF	; 255
    32ae:	8f 4f       	sbci	r24, 0xFF	; 255
    32b0:	9f 4f       	sbci	r25, 0xFF	; 255
    32b2:	99 23       	and	r25, r25
    32b4:	a9 f0       	breq	.+42     	; 0x32e0 <__floatsisf+0x40>
    32b6:	f9 2f       	mov	r31, r25
    32b8:	96 e9       	ldi	r25, 0x96	; 150
    32ba:	bb 27       	eor	r27, r27
    32bc:	93 95       	inc	r25
    32be:	f6 95       	lsr	r31
    32c0:	87 95       	ror	r24
    32c2:	77 95       	ror	r23
    32c4:	67 95       	ror	r22
    32c6:	b7 95       	ror	r27
    32c8:	f1 11       	cpse	r31, r1
    32ca:	f8 cf       	rjmp	.-16     	; 0x32bc <__floatsisf+0x1c>
    32cc:	fa f4       	brpl	.+62     	; 0x330c <__floatsisf+0x6c>
    32ce:	bb 0f       	add	r27, r27
    32d0:	11 f4       	brne	.+4      	; 0x32d6 <__floatsisf+0x36>
    32d2:	60 ff       	sbrs	r22, 0
    32d4:	1b c0       	rjmp	.+54     	; 0x330c <__floatsisf+0x6c>
    32d6:	6f 5f       	subi	r22, 0xFF	; 255
    32d8:	7f 4f       	sbci	r23, 0xFF	; 255
    32da:	8f 4f       	sbci	r24, 0xFF	; 255
    32dc:	9f 4f       	sbci	r25, 0xFF	; 255
    32de:	16 c0       	rjmp	.+44     	; 0x330c <__floatsisf+0x6c>
    32e0:	88 23       	and	r24, r24
    32e2:	11 f0       	breq	.+4      	; 0x32e8 <__floatsisf+0x48>
    32e4:	96 e9       	ldi	r25, 0x96	; 150
    32e6:	11 c0       	rjmp	.+34     	; 0x330a <__floatsisf+0x6a>
    32e8:	77 23       	and	r23, r23
    32ea:	21 f0       	breq	.+8      	; 0x32f4 <__floatsisf+0x54>
    32ec:	9e e8       	ldi	r25, 0x8E	; 142
    32ee:	87 2f       	mov	r24, r23
    32f0:	76 2f       	mov	r23, r22
    32f2:	05 c0       	rjmp	.+10     	; 0x32fe <__floatsisf+0x5e>
    32f4:	66 23       	and	r22, r22
    32f6:	71 f0       	breq	.+28     	; 0x3314 <__floatsisf+0x74>
    32f8:	96 e8       	ldi	r25, 0x86	; 134
    32fa:	86 2f       	mov	r24, r22
    32fc:	70 e0       	ldi	r23, 0x00	; 0
    32fe:	60 e0       	ldi	r22, 0x00	; 0
    3300:	2a f0       	brmi	.+10     	; 0x330c <__floatsisf+0x6c>
    3302:	9a 95       	dec	r25
    3304:	66 0f       	add	r22, r22
    3306:	77 1f       	adc	r23, r23
    3308:	88 1f       	adc	r24, r24
    330a:	da f7       	brpl	.-10     	; 0x3302 <__floatsisf+0x62>
    330c:	88 0f       	add	r24, r24
    330e:	96 95       	lsr	r25
    3310:	87 95       	ror	r24
    3312:	97 f9       	bld	r25, 7
    3314:	08 95       	ret

00003316 <__fp_cmp>:
    3316:	99 0f       	add	r25, r25
    3318:	00 08       	sbc	r0, r0
    331a:	55 0f       	add	r21, r21
    331c:	aa 0b       	sbc	r26, r26
    331e:	e0 e8       	ldi	r30, 0x80	; 128
    3320:	fe ef       	ldi	r31, 0xFE	; 254
    3322:	16 16       	cp	r1, r22
    3324:	17 06       	cpc	r1, r23
    3326:	e8 07       	cpc	r30, r24
    3328:	f9 07       	cpc	r31, r25
    332a:	c0 f0       	brcs	.+48     	; 0x335c <__fp_cmp+0x46>
    332c:	12 16       	cp	r1, r18
    332e:	13 06       	cpc	r1, r19
    3330:	e4 07       	cpc	r30, r20
    3332:	f5 07       	cpc	r31, r21
    3334:	98 f0       	brcs	.+38     	; 0x335c <__fp_cmp+0x46>
    3336:	62 1b       	sub	r22, r18
    3338:	73 0b       	sbc	r23, r19
    333a:	84 0b       	sbc	r24, r20
    333c:	95 0b       	sbc	r25, r21
    333e:	39 f4       	brne	.+14     	; 0x334e <__fp_cmp+0x38>
    3340:	0a 26       	eor	r0, r26
    3342:	61 f0       	breq	.+24     	; 0x335c <__fp_cmp+0x46>
    3344:	23 2b       	or	r18, r19
    3346:	24 2b       	or	r18, r20
    3348:	25 2b       	or	r18, r21
    334a:	21 f4       	brne	.+8      	; 0x3354 <__fp_cmp+0x3e>
    334c:	08 95       	ret
    334e:	0a 26       	eor	r0, r26
    3350:	09 f4       	brne	.+2      	; 0x3354 <__fp_cmp+0x3e>
    3352:	a1 40       	sbci	r26, 0x01	; 1
    3354:	a6 95       	lsr	r26
    3356:	8f ef       	ldi	r24, 0xFF	; 255
    3358:	81 1d       	adc	r24, r1
    335a:	81 1d       	adc	r24, r1
    335c:	08 95       	ret

0000335e <__fp_inf>:
    335e:	97 f9       	bld	r25, 7
    3360:	9f 67       	ori	r25, 0x7F	; 127
    3362:	80 e8       	ldi	r24, 0x80	; 128
    3364:	70 e0       	ldi	r23, 0x00	; 0
    3366:	60 e0       	ldi	r22, 0x00	; 0
    3368:	08 95       	ret

0000336a <__fp_mintl>:
    336a:	88 23       	and	r24, r24
    336c:	71 f4       	brne	.+28     	; 0x338a <__fp_mintl+0x20>
    336e:	77 23       	and	r23, r23
    3370:	21 f0       	breq	.+8      	; 0x337a <__fp_mintl+0x10>
    3372:	98 50       	subi	r25, 0x08	; 8
    3374:	87 2b       	or	r24, r23
    3376:	76 2f       	mov	r23, r22
    3378:	07 c0       	rjmp	.+14     	; 0x3388 <__fp_mintl+0x1e>
    337a:	66 23       	and	r22, r22
    337c:	11 f4       	brne	.+4      	; 0x3382 <__fp_mintl+0x18>
    337e:	99 27       	eor	r25, r25
    3380:	0d c0       	rjmp	.+26     	; 0x339c <__fp_mintl+0x32>
    3382:	90 51       	subi	r25, 0x10	; 16
    3384:	86 2b       	or	r24, r22
    3386:	70 e0       	ldi	r23, 0x00	; 0
    3388:	60 e0       	ldi	r22, 0x00	; 0
    338a:	2a f0       	brmi	.+10     	; 0x3396 <__fp_mintl+0x2c>
    338c:	9a 95       	dec	r25
    338e:	66 0f       	add	r22, r22
    3390:	77 1f       	adc	r23, r23
    3392:	88 1f       	adc	r24, r24
    3394:	da f7       	brpl	.-10     	; 0x338c <__fp_mintl+0x22>
    3396:	88 0f       	add	r24, r24
    3398:	96 95       	lsr	r25
    339a:	87 95       	ror	r24
    339c:	97 f9       	bld	r25, 7
    339e:	08 95       	ret

000033a0 <__fp_mpack>:
    33a0:	9f 3f       	cpi	r25, 0xFF	; 255
    33a2:	31 f0       	breq	.+12     	; 0x33b0 <__fp_mpack_finite+0xc>

000033a4 <__fp_mpack_finite>:
    33a4:	91 50       	subi	r25, 0x01	; 1
    33a6:	20 f4       	brcc	.+8      	; 0x33b0 <__fp_mpack_finite+0xc>
    33a8:	87 95       	ror	r24
    33aa:	77 95       	ror	r23
    33ac:	67 95       	ror	r22
    33ae:	b7 95       	ror	r27
    33b0:	88 0f       	add	r24, r24
    33b2:	91 1d       	adc	r25, r1
    33b4:	96 95       	lsr	r25
    33b6:	87 95       	ror	r24
    33b8:	97 f9       	bld	r25, 7
    33ba:	08 95       	ret

000033bc <__fp_nan>:
    33bc:	9f ef       	ldi	r25, 0xFF	; 255
    33be:	80 ec       	ldi	r24, 0xC0	; 192
    33c0:	08 95       	ret

000033c2 <__fp_pscA>:
    33c2:	00 24       	eor	r0, r0
    33c4:	0a 94       	dec	r0
    33c6:	16 16       	cp	r1, r22
    33c8:	17 06       	cpc	r1, r23
    33ca:	18 06       	cpc	r1, r24
    33cc:	09 06       	cpc	r0, r25
    33ce:	08 95       	ret

000033d0 <__fp_pscB>:
    33d0:	00 24       	eor	r0, r0
    33d2:	0a 94       	dec	r0
    33d4:	12 16       	cp	r1, r18
    33d6:	13 06       	cpc	r1, r19
    33d8:	14 06       	cpc	r1, r20
    33da:	05 06       	cpc	r0, r21
    33dc:	08 95       	ret

000033de <__fp_round>:
    33de:	09 2e       	mov	r0, r25
    33e0:	03 94       	inc	r0
    33e2:	00 0c       	add	r0, r0
    33e4:	11 f4       	brne	.+4      	; 0x33ea <__fp_round+0xc>
    33e6:	88 23       	and	r24, r24
    33e8:	52 f0       	brmi	.+20     	; 0x33fe <__fp_round+0x20>
    33ea:	bb 0f       	add	r27, r27
    33ec:	40 f4       	brcc	.+16     	; 0x33fe <__fp_round+0x20>
    33ee:	bf 2b       	or	r27, r31
    33f0:	11 f4       	brne	.+4      	; 0x33f6 <__fp_round+0x18>
    33f2:	60 ff       	sbrs	r22, 0
    33f4:	04 c0       	rjmp	.+8      	; 0x33fe <__fp_round+0x20>
    33f6:	6f 5f       	subi	r22, 0xFF	; 255
    33f8:	7f 4f       	sbci	r23, 0xFF	; 255
    33fa:	8f 4f       	sbci	r24, 0xFF	; 255
    33fc:	9f 4f       	sbci	r25, 0xFF	; 255
    33fe:	08 95       	ret

00003400 <__fp_split3>:
    3400:	57 fd       	sbrc	r21, 7
    3402:	90 58       	subi	r25, 0x80	; 128
    3404:	44 0f       	add	r20, r20
    3406:	55 1f       	adc	r21, r21
    3408:	59 f0       	breq	.+22     	; 0x3420 <__fp_splitA+0x10>
    340a:	5f 3f       	cpi	r21, 0xFF	; 255
    340c:	71 f0       	breq	.+28     	; 0x342a <__fp_splitA+0x1a>
    340e:	47 95       	ror	r20

00003410 <__fp_splitA>:
    3410:	88 0f       	add	r24, r24
    3412:	97 fb       	bst	r25, 7
    3414:	99 1f       	adc	r25, r25
    3416:	61 f0       	breq	.+24     	; 0x3430 <__fp_splitA+0x20>
    3418:	9f 3f       	cpi	r25, 0xFF	; 255
    341a:	79 f0       	breq	.+30     	; 0x343a <__fp_splitA+0x2a>
    341c:	87 95       	ror	r24
    341e:	08 95       	ret
    3420:	12 16       	cp	r1, r18
    3422:	13 06       	cpc	r1, r19
    3424:	14 06       	cpc	r1, r20
    3426:	55 1f       	adc	r21, r21
    3428:	f2 cf       	rjmp	.-28     	; 0x340e <__fp_split3+0xe>
    342a:	46 95       	lsr	r20
    342c:	f1 df       	rcall	.-30     	; 0x3410 <__fp_splitA>
    342e:	08 c0       	rjmp	.+16     	; 0x3440 <__fp_splitA+0x30>
    3430:	16 16       	cp	r1, r22
    3432:	17 06       	cpc	r1, r23
    3434:	18 06       	cpc	r1, r24
    3436:	99 1f       	adc	r25, r25
    3438:	f1 cf       	rjmp	.-30     	; 0x341c <__fp_splitA+0xc>
    343a:	86 95       	lsr	r24
    343c:	71 05       	cpc	r23, r1
    343e:	61 05       	cpc	r22, r1
    3440:	08 94       	sec
    3442:	08 95       	ret

00003444 <__fp_trunc>:
    3444:	0e 94 08 1a 	call	0x3410	; 0x3410 <__fp_splitA>
    3448:	a0 f0       	brcs	.+40     	; 0x3472 <__fp_trunc+0x2e>
    344a:	be e7       	ldi	r27, 0x7E	; 126
    344c:	b9 17       	cp	r27, r25
    344e:	88 f4       	brcc	.+34     	; 0x3472 <__fp_trunc+0x2e>
    3450:	bb 27       	eor	r27, r27
    3452:	9f 38       	cpi	r25, 0x8F	; 143
    3454:	60 f4       	brcc	.+24     	; 0x346e <__fp_trunc+0x2a>
    3456:	16 16       	cp	r1, r22
    3458:	b1 1d       	adc	r27, r1
    345a:	67 2f       	mov	r22, r23
    345c:	78 2f       	mov	r23, r24
    345e:	88 27       	eor	r24, r24
    3460:	98 5f       	subi	r25, 0xF8	; 248
    3462:	f7 cf       	rjmp	.-18     	; 0x3452 <__fp_trunc+0xe>
    3464:	86 95       	lsr	r24
    3466:	77 95       	ror	r23
    3468:	67 95       	ror	r22
    346a:	b1 1d       	adc	r27, r1
    346c:	93 95       	inc	r25
    346e:	96 39       	cpi	r25, 0x96	; 150
    3470:	c8 f3       	brcs	.-14     	; 0x3464 <__fp_trunc+0x20>
    3472:	08 95       	ret

00003474 <__fp_zero>:
    3474:	e8 94       	clt

00003476 <__fp_szero>:
    3476:	bb 27       	eor	r27, r27
    3478:	66 27       	eor	r22, r22
    347a:	77 27       	eor	r23, r23
    347c:	cb 01       	movw	r24, r22
    347e:	97 f9       	bld	r25, 7
    3480:	08 95       	ret

00003482 <__mulsf3>:
    3482:	0e 94 54 1a 	call	0x34a8	; 0x34a8 <__mulsf3x>
    3486:	0c 94 ef 19 	jmp	0x33de	; 0x33de <__fp_round>
    348a:	0e 94 e1 19 	call	0x33c2	; 0x33c2 <__fp_pscA>
    348e:	38 f0       	brcs	.+14     	; 0x349e <__mulsf3+0x1c>
    3490:	0e 94 e8 19 	call	0x33d0	; 0x33d0 <__fp_pscB>
    3494:	20 f0       	brcs	.+8      	; 0x349e <__mulsf3+0x1c>
    3496:	95 23       	and	r25, r21
    3498:	11 f0       	breq	.+4      	; 0x349e <__mulsf3+0x1c>
    349a:	0c 94 af 19 	jmp	0x335e	; 0x335e <__fp_inf>
    349e:	0c 94 de 19 	jmp	0x33bc	; 0x33bc <__fp_nan>
    34a2:	11 24       	eor	r1, r1
    34a4:	0c 94 3b 1a 	jmp	0x3476	; 0x3476 <__fp_szero>

000034a8 <__mulsf3x>:
    34a8:	0e 94 00 1a 	call	0x3400	; 0x3400 <__fp_split3>
    34ac:	70 f3       	brcs	.-36     	; 0x348a <__mulsf3+0x8>

000034ae <__mulsf3_pse>:
    34ae:	95 9f       	mul	r25, r21
    34b0:	c1 f3       	breq	.-16     	; 0x34a2 <__mulsf3+0x20>
    34b2:	95 0f       	add	r25, r21
    34b4:	50 e0       	ldi	r21, 0x00	; 0
    34b6:	55 1f       	adc	r21, r21
    34b8:	62 9f       	mul	r22, r18
    34ba:	f0 01       	movw	r30, r0
    34bc:	72 9f       	mul	r23, r18
    34be:	bb 27       	eor	r27, r27
    34c0:	f0 0d       	add	r31, r0
    34c2:	b1 1d       	adc	r27, r1
    34c4:	63 9f       	mul	r22, r19
    34c6:	aa 27       	eor	r26, r26
    34c8:	f0 0d       	add	r31, r0
    34ca:	b1 1d       	adc	r27, r1
    34cc:	aa 1f       	adc	r26, r26
    34ce:	64 9f       	mul	r22, r20
    34d0:	66 27       	eor	r22, r22
    34d2:	b0 0d       	add	r27, r0
    34d4:	a1 1d       	adc	r26, r1
    34d6:	66 1f       	adc	r22, r22
    34d8:	82 9f       	mul	r24, r18
    34da:	22 27       	eor	r18, r18
    34dc:	b0 0d       	add	r27, r0
    34de:	a1 1d       	adc	r26, r1
    34e0:	62 1f       	adc	r22, r18
    34e2:	73 9f       	mul	r23, r19
    34e4:	b0 0d       	add	r27, r0
    34e6:	a1 1d       	adc	r26, r1
    34e8:	62 1f       	adc	r22, r18
    34ea:	83 9f       	mul	r24, r19
    34ec:	a0 0d       	add	r26, r0
    34ee:	61 1d       	adc	r22, r1
    34f0:	22 1f       	adc	r18, r18
    34f2:	74 9f       	mul	r23, r20
    34f4:	33 27       	eor	r19, r19
    34f6:	a0 0d       	add	r26, r0
    34f8:	61 1d       	adc	r22, r1
    34fa:	23 1f       	adc	r18, r19
    34fc:	84 9f       	mul	r24, r20
    34fe:	60 0d       	add	r22, r0
    3500:	21 1d       	adc	r18, r1
    3502:	82 2f       	mov	r24, r18
    3504:	76 2f       	mov	r23, r22
    3506:	6a 2f       	mov	r22, r26
    3508:	11 24       	eor	r1, r1
    350a:	9f 57       	subi	r25, 0x7F	; 127
    350c:	50 40       	sbci	r21, 0x00	; 0
    350e:	9a f0       	brmi	.+38     	; 0x3536 <__mulsf3_pse+0x88>
    3510:	f1 f0       	breq	.+60     	; 0x354e <__mulsf3_pse+0xa0>
    3512:	88 23       	and	r24, r24
    3514:	4a f0       	brmi	.+18     	; 0x3528 <__mulsf3_pse+0x7a>
    3516:	ee 0f       	add	r30, r30
    3518:	ff 1f       	adc	r31, r31
    351a:	bb 1f       	adc	r27, r27
    351c:	66 1f       	adc	r22, r22
    351e:	77 1f       	adc	r23, r23
    3520:	88 1f       	adc	r24, r24
    3522:	91 50       	subi	r25, 0x01	; 1
    3524:	50 40       	sbci	r21, 0x00	; 0
    3526:	a9 f7       	brne	.-22     	; 0x3512 <__mulsf3_pse+0x64>
    3528:	9e 3f       	cpi	r25, 0xFE	; 254
    352a:	51 05       	cpc	r21, r1
    352c:	80 f0       	brcs	.+32     	; 0x354e <__mulsf3_pse+0xa0>
    352e:	0c 94 af 19 	jmp	0x335e	; 0x335e <__fp_inf>
    3532:	0c 94 3b 1a 	jmp	0x3476	; 0x3476 <__fp_szero>
    3536:	5f 3f       	cpi	r21, 0xFF	; 255
    3538:	e4 f3       	brlt	.-8      	; 0x3532 <__mulsf3_pse+0x84>
    353a:	98 3e       	cpi	r25, 0xE8	; 232
    353c:	d4 f3       	brlt	.-12     	; 0x3532 <__mulsf3_pse+0x84>
    353e:	86 95       	lsr	r24
    3540:	77 95       	ror	r23
    3542:	67 95       	ror	r22
    3544:	b7 95       	ror	r27
    3546:	f7 95       	ror	r31
    3548:	e7 95       	ror	r30
    354a:	9f 5f       	subi	r25, 0xFF	; 255
    354c:	c1 f7       	brne	.-16     	; 0x353e <__mulsf3_pse+0x90>
    354e:	fe 2b       	or	r31, r30
    3550:	88 0f       	add	r24, r24
    3552:	91 1d       	adc	r25, r1
    3554:	96 95       	lsr	r25
    3556:	87 95       	ror	r24
    3558:	97 f9       	bld	r25, 7
    355a:	08 95       	ret

0000355c <__vector_16>:
    355c:	1f 92       	push	r1
    355e:	0f 92       	push	r0
    3560:	0f b6       	in	r0, 0x3f	; 63
    3562:	0f 92       	push	r0
    3564:	11 24       	eor	r1, r1
    3566:	2f 93       	push	r18
    3568:	3f 93       	push	r19
    356a:	8f 93       	push	r24
    356c:	9f 93       	push	r25
    356e:	af 93       	push	r26
    3570:	bf 93       	push	r27
    3572:	80 91 f4 06 	lds	r24, 0x06F4	; 0x8006f4 <timer0_millis>
    3576:	90 91 f5 06 	lds	r25, 0x06F5	; 0x8006f5 <timer0_millis+0x1>
    357a:	a0 91 f6 06 	lds	r26, 0x06F6	; 0x8006f6 <timer0_millis+0x2>
    357e:	b0 91 f7 06 	lds	r27, 0x06F7	; 0x8006f7 <timer0_millis+0x3>
    3582:	30 91 f8 06 	lds	r19, 0x06F8	; 0x8006f8 <timer0_fract>
    3586:	01 96       	adiw	r24, 0x01	; 1
    3588:	a1 1d       	adc	r26, r1
    358a:	b1 1d       	adc	r27, r1
    358c:	23 2f       	mov	r18, r19
    358e:	2d 5f       	subi	r18, 0xFD	; 253
    3590:	2d 37       	cpi	r18, 0x7D	; 125
    3592:	20 f0       	brcs	.+8      	; 0x359c <__vector_16+0x40>
    3594:	2d 57       	subi	r18, 0x7D	; 125
    3596:	01 96       	adiw	r24, 0x01	; 1
    3598:	a1 1d       	adc	r26, r1
    359a:	b1 1d       	adc	r27, r1
    359c:	20 93 f8 06 	sts	0x06F8, r18	; 0x8006f8 <timer0_fract>
    35a0:	80 93 f4 06 	sts	0x06F4, r24	; 0x8006f4 <timer0_millis>
    35a4:	90 93 f5 06 	sts	0x06F5, r25	; 0x8006f5 <timer0_millis+0x1>
    35a8:	a0 93 f6 06 	sts	0x06F6, r26	; 0x8006f6 <timer0_millis+0x2>
    35ac:	b0 93 f7 06 	sts	0x06F7, r27	; 0x8006f7 <timer0_millis+0x3>
    35b0:	80 91 f0 06 	lds	r24, 0x06F0	; 0x8006f0 <timer0_overflow_count>
    35b4:	90 91 f1 06 	lds	r25, 0x06F1	; 0x8006f1 <timer0_overflow_count+0x1>
    35b8:	a0 91 f2 06 	lds	r26, 0x06F2	; 0x8006f2 <timer0_overflow_count+0x2>
    35bc:	b0 91 f3 06 	lds	r27, 0x06F3	; 0x8006f3 <timer0_overflow_count+0x3>
    35c0:	01 96       	adiw	r24, 0x01	; 1
    35c2:	a1 1d       	adc	r26, r1
    35c4:	b1 1d       	adc	r27, r1
    35c6:	80 93 f0 06 	sts	0x06F0, r24	; 0x8006f0 <timer0_overflow_count>
    35ca:	90 93 f1 06 	sts	0x06F1, r25	; 0x8006f1 <timer0_overflow_count+0x1>
    35ce:	a0 93 f2 06 	sts	0x06F2, r26	; 0x8006f2 <timer0_overflow_count+0x2>
    35d2:	b0 93 f3 06 	sts	0x06F3, r27	; 0x8006f3 <timer0_overflow_count+0x3>
    35d6:	bf 91       	pop	r27
    35d8:	af 91       	pop	r26
    35da:	9f 91       	pop	r25
    35dc:	8f 91       	pop	r24
    35de:	3f 91       	pop	r19
    35e0:	2f 91       	pop	r18
    35e2:	0f 90       	pop	r0
    35e4:	0f be       	out	0x3f, r0	; 63
    35e6:	0f 90       	pop	r0
    35e8:	1f 90       	pop	r1
    35ea:	18 95       	reti

000035ec <millis>:
    35ec:	8f b7       	in	r24, 0x3f	; 63
    35ee:	f8 94       	cli
    35f0:	20 91 f4 06 	lds	r18, 0x06F4	; 0x8006f4 <timer0_millis>
    35f4:	30 91 f5 06 	lds	r19, 0x06F5	; 0x8006f5 <timer0_millis+0x1>
    35f8:	40 91 f6 06 	lds	r20, 0x06F6	; 0x8006f6 <timer0_millis+0x2>
    35fc:	50 91 f7 06 	lds	r21, 0x06F7	; 0x8006f7 <timer0_millis+0x3>
    3600:	8f bf       	out	0x3f, r24	; 63
    3602:	b9 01       	movw	r22, r18
    3604:	ca 01       	movw	r24, r20
    3606:	08 95       	ret

00003608 <delay>:
    3608:	9b 01       	movw	r18, r22
    360a:	ac 01       	movw	r20, r24
    360c:	7f b7       	in	r23, 0x3f	; 63
    360e:	f8 94       	cli
    3610:	80 91 f0 06 	lds	r24, 0x06F0	; 0x8006f0 <timer0_overflow_count>
    3614:	90 91 f1 06 	lds	r25, 0x06F1	; 0x8006f1 <timer0_overflow_count+0x1>
    3618:	a0 91 f2 06 	lds	r26, 0x06F2	; 0x8006f2 <timer0_overflow_count+0x2>
    361c:	b0 91 f3 06 	lds	r27, 0x06F3	; 0x8006f3 <timer0_overflow_count+0x3>
    3620:	66 b5       	in	r22, 0x26	; 38
    3622:	a8 9b       	sbis	0x15, 0	; 21
    3624:	05 c0       	rjmp	.+10     	; 0x3630 <delay+0x28>
    3626:	6f 3f       	cpi	r22, 0xFF	; 255
    3628:	19 f0       	breq	.+6      	; 0x3630 <delay+0x28>
    362a:	01 96       	adiw	r24, 0x01	; 1
    362c:	a1 1d       	adc	r26, r1
    362e:	b1 1d       	adc	r27, r1
    3630:	7f bf       	out	0x3f, r23	; 63
    3632:	ba 2f       	mov	r27, r26
    3634:	a9 2f       	mov	r26, r25
    3636:	98 2f       	mov	r25, r24
    3638:	88 27       	eor	r24, r24
    363a:	86 0f       	add	r24, r22
    363c:	91 1d       	adc	r25, r1
    363e:	a1 1d       	adc	r26, r1
    3640:	b1 1d       	adc	r27, r1
    3642:	62 e0       	ldi	r22, 0x02	; 2
    3644:	88 0f       	add	r24, r24
    3646:	99 1f       	adc	r25, r25
    3648:	aa 1f       	adc	r26, r26
    364a:	bb 1f       	adc	r27, r27
    364c:	6a 95       	dec	r22
    364e:	d1 f7       	brne	.-12     	; 0x3644 <delay+0x3c>
    3650:	bc 01       	movw	r22, r24
    3652:	2d c0       	rjmp	.+90     	; 0x36ae <delay+0xa6>
    3654:	ff b7       	in	r31, 0x3f	; 63
    3656:	f8 94       	cli
    3658:	80 91 f0 06 	lds	r24, 0x06F0	; 0x8006f0 <timer0_overflow_count>
    365c:	90 91 f1 06 	lds	r25, 0x06F1	; 0x8006f1 <timer0_overflow_count+0x1>
    3660:	a0 91 f2 06 	lds	r26, 0x06F2	; 0x8006f2 <timer0_overflow_count+0x2>
    3664:	b0 91 f3 06 	lds	r27, 0x06F3	; 0x8006f3 <timer0_overflow_count+0x3>
    3668:	e6 b5       	in	r30, 0x26	; 38
    366a:	a8 9b       	sbis	0x15, 0	; 21
    366c:	05 c0       	rjmp	.+10     	; 0x3678 <delay+0x70>
    366e:	ef 3f       	cpi	r30, 0xFF	; 255
    3670:	19 f0       	breq	.+6      	; 0x3678 <delay+0x70>
    3672:	01 96       	adiw	r24, 0x01	; 1
    3674:	a1 1d       	adc	r26, r1
    3676:	b1 1d       	adc	r27, r1
    3678:	ff bf       	out	0x3f, r31	; 63
    367a:	ba 2f       	mov	r27, r26
    367c:	a9 2f       	mov	r26, r25
    367e:	98 2f       	mov	r25, r24
    3680:	88 27       	eor	r24, r24
    3682:	8e 0f       	add	r24, r30
    3684:	91 1d       	adc	r25, r1
    3686:	a1 1d       	adc	r26, r1
    3688:	b1 1d       	adc	r27, r1
    368a:	e2 e0       	ldi	r30, 0x02	; 2
    368c:	88 0f       	add	r24, r24
    368e:	99 1f       	adc	r25, r25
    3690:	aa 1f       	adc	r26, r26
    3692:	bb 1f       	adc	r27, r27
    3694:	ea 95       	dec	r30
    3696:	d1 f7       	brne	.-12     	; 0x368c <delay+0x84>
    3698:	86 1b       	sub	r24, r22
    369a:	97 0b       	sbc	r25, r23
    369c:	88 5e       	subi	r24, 0xE8	; 232
    369e:	93 40       	sbci	r25, 0x03	; 3
    36a0:	c8 f2       	brcs	.-78     	; 0x3654 <delay+0x4c>
    36a2:	21 50       	subi	r18, 0x01	; 1
    36a4:	30 40       	sbci	r19, 0x00	; 0
    36a6:	40 40       	sbci	r20, 0x00	; 0
    36a8:	50 40       	sbci	r21, 0x00	; 0
    36aa:	68 51       	subi	r22, 0x18	; 24
    36ac:	7c 4f       	sbci	r23, 0xFC	; 252
    36ae:	21 15       	cp	r18, r1
    36b0:	31 05       	cpc	r19, r1
    36b2:	41 05       	cpc	r20, r1
    36b4:	51 05       	cpc	r21, r1
    36b6:	71 f6       	brne	.-100    	; 0x3654 <delay+0x4c>
    36b8:	08 95       	ret

000036ba <init>:
    36ba:	78 94       	sei
    36bc:	84 b5       	in	r24, 0x24	; 36
    36be:	82 60       	ori	r24, 0x02	; 2
    36c0:	84 bd       	out	0x24, r24	; 36
    36c2:	84 b5       	in	r24, 0x24	; 36
    36c4:	81 60       	ori	r24, 0x01	; 1
    36c6:	84 bd       	out	0x24, r24	; 36
    36c8:	85 b5       	in	r24, 0x25	; 37
    36ca:	82 60       	ori	r24, 0x02	; 2
    36cc:	85 bd       	out	0x25, r24	; 37
    36ce:	85 b5       	in	r24, 0x25	; 37
    36d0:	81 60       	ori	r24, 0x01	; 1
    36d2:	85 bd       	out	0x25, r24	; 37
    36d4:	ee e6       	ldi	r30, 0x6E	; 110
    36d6:	f0 e0       	ldi	r31, 0x00	; 0
    36d8:	80 81       	ld	r24, Z
    36da:	81 60       	ori	r24, 0x01	; 1
    36dc:	80 83       	st	Z, r24
    36de:	e1 e8       	ldi	r30, 0x81	; 129
    36e0:	f0 e0       	ldi	r31, 0x00	; 0
    36e2:	10 82       	st	Z, r1
    36e4:	80 81       	ld	r24, Z
    36e6:	82 60       	ori	r24, 0x02	; 2
    36e8:	80 83       	st	Z, r24
    36ea:	80 81       	ld	r24, Z
    36ec:	81 60       	ori	r24, 0x01	; 1
    36ee:	80 83       	st	Z, r24
    36f0:	e0 e8       	ldi	r30, 0x80	; 128
    36f2:	f0 e0       	ldi	r31, 0x00	; 0
    36f4:	80 81       	ld	r24, Z
    36f6:	81 60       	ori	r24, 0x01	; 1
    36f8:	80 83       	st	Z, r24
    36fa:	e1 eb       	ldi	r30, 0xB1	; 177
    36fc:	f0 e0       	ldi	r31, 0x00	; 0
    36fe:	80 81       	ld	r24, Z
    3700:	84 60       	ori	r24, 0x04	; 4
    3702:	80 83       	st	Z, r24
    3704:	e0 eb       	ldi	r30, 0xB0	; 176
    3706:	f0 e0       	ldi	r31, 0x00	; 0
    3708:	80 81       	ld	r24, Z
    370a:	81 60       	ori	r24, 0x01	; 1
    370c:	80 83       	st	Z, r24
    370e:	ea e7       	ldi	r30, 0x7A	; 122
    3710:	f0 e0       	ldi	r31, 0x00	; 0
    3712:	80 81       	ld	r24, Z
    3714:	84 60       	ori	r24, 0x04	; 4
    3716:	80 83       	st	Z, r24
    3718:	80 81       	ld	r24, Z
    371a:	82 60       	ori	r24, 0x02	; 2
    371c:	80 83       	st	Z, r24
    371e:	80 81       	ld	r24, Z
    3720:	81 60       	ori	r24, 0x01	; 1
    3722:	80 83       	st	Z, r24
    3724:	80 81       	ld	r24, Z
    3726:	80 68       	ori	r24, 0x80	; 128
    3728:	80 83       	st	Z, r24
    372a:	10 92 c1 00 	sts	0x00C1, r1	; 0x8000c1 <__TEXT_REGION_LENGTH__+0x7e00c1>
    372e:	08 95       	ret

00003730 <analogReference>:
    3730:	80 93 21 05 	sts	0x0521, r24	; 0x800521 <analog_reference>
    3734:	08 95       	ret

00003736 <analogRead>:
    3736:	98 2f       	mov	r25, r24
    3738:	8e 30       	cpi	r24, 0x0E	; 14
    373a:	08 f0       	brcs	.+2      	; 0x373e <analogRead+0x8>
    373c:	9e 50       	subi	r25, 0x0E	; 14
    373e:	97 70       	andi	r25, 0x07	; 7
    3740:	80 91 21 05 	lds	r24, 0x0521	; 0x800521 <analog_reference>
    3744:	82 95       	swap	r24
    3746:	88 0f       	add	r24, r24
    3748:	88 0f       	add	r24, r24
    374a:	80 7c       	andi	r24, 0xC0	; 192
    374c:	89 2b       	or	r24, r25
    374e:	80 93 7c 00 	sts	0x007C, r24	; 0x80007c <__TEXT_REGION_LENGTH__+0x7e007c>
    3752:	80 91 7a 00 	lds	r24, 0x007A	; 0x80007a <__TEXT_REGION_LENGTH__+0x7e007a>
    3756:	80 64       	ori	r24, 0x40	; 64
    3758:	80 93 7a 00 	sts	0x007A, r24	; 0x80007a <__TEXT_REGION_LENGTH__+0x7e007a>
    375c:	80 91 7a 00 	lds	r24, 0x007A	; 0x80007a <__TEXT_REGION_LENGTH__+0x7e007a>
    3760:	86 fd       	sbrc	r24, 6
    3762:	fc cf       	rjmp	.-8      	; 0x375c <analogRead+0x26>
    3764:	20 91 78 00 	lds	r18, 0x0078	; 0x800078 <__TEXT_REGION_LENGTH__+0x7e0078>
    3768:	40 91 79 00 	lds	r20, 0x0079	; 0x800079 <__TEXT_REGION_LENGTH__+0x7e0079>
    376c:	94 2f       	mov	r25, r20
    376e:	80 e0       	ldi	r24, 0x00	; 0
    3770:	30 e0       	ldi	r19, 0x00	; 0
    3772:	28 2b       	or	r18, r24
    3774:	39 2b       	or	r19, r25
    3776:	c9 01       	movw	r24, r18
    3778:	08 95       	ret

0000377a <__cxa_pure_virtual>:
    377a:	08 95       	ret

0000377c <_Znwj>:
    377c:	0e 94 75 1e 	call	0x3cea	; 0x3cea <malloc>
    3780:	08 95       	ret

00003782 <_ZN5Print5writeEPKhj>:
    3782:	cf 92       	push	r12
    3784:	df 92       	push	r13
    3786:	ef 92       	push	r14
    3788:	ff 92       	push	r15
    378a:	0f 93       	push	r16
    378c:	1f 93       	push	r17
    378e:	cf 93       	push	r28
    3790:	df 93       	push	r29
    3792:	7c 01       	movw	r14, r24
    3794:	6b 01       	movw	r12, r22
    3796:	8a 01       	movw	r16, r20
    3798:	c0 e0       	ldi	r28, 0x00	; 0
    379a:	d0 e0       	ldi	r29, 0x00	; 0
    379c:	0f c0       	rjmp	.+30     	; 0x37bc <_ZN5Print5writeEPKhj+0x3a>
    379e:	d6 01       	movw	r26, r12
    37a0:	6d 91       	ld	r22, X+
    37a2:	6d 01       	movw	r12, r26
    37a4:	d7 01       	movw	r26, r14
    37a6:	ed 91       	ld	r30, X+
    37a8:	fc 91       	ld	r31, X
    37aa:	01 90       	ld	r0, Z+
    37ac:	f0 81       	ld	r31, Z
    37ae:	e0 2d       	mov	r30, r0
    37b0:	c7 01       	movw	r24, r14
    37b2:	09 95       	icall
    37b4:	c8 0f       	add	r28, r24
    37b6:	d9 1f       	adc	r29, r25
    37b8:	01 50       	subi	r16, 0x01	; 1
    37ba:	10 40       	sbci	r17, 0x00	; 0
    37bc:	01 15       	cp	r16, r1
    37be:	11 05       	cpc	r17, r1
    37c0:	71 f7       	brne	.-36     	; 0x379e <_ZN5Print5writeEPKhj+0x1c>
    37c2:	ce 01       	movw	r24, r28
    37c4:	df 91       	pop	r29
    37c6:	cf 91       	pop	r28
    37c8:	1f 91       	pop	r17
    37ca:	0f 91       	pop	r16
    37cc:	ff 90       	pop	r15
    37ce:	ef 90       	pop	r14
    37d0:	df 90       	pop	r13
    37d2:	cf 90       	pop	r12
    37d4:	08 95       	ret

000037d6 <_ZN5Print5printEPK19__FlashStringHelper>:
    37d6:	ef 92       	push	r14
    37d8:	ff 92       	push	r15
    37da:	0f 93       	push	r16
    37dc:	1f 93       	push	r17
    37de:	cf 93       	push	r28
    37e0:	df 93       	push	r29
    37e2:	7c 01       	movw	r14, r24
    37e4:	8b 01       	movw	r16, r22
    37e6:	c0 e0       	ldi	r28, 0x00	; 0
    37e8:	d0 e0       	ldi	r29, 0x00	; 0
    37ea:	f8 01       	movw	r30, r16
    37ec:	0f 5f       	subi	r16, 0xFF	; 255
    37ee:	1f 4f       	sbci	r17, 0xFF	; 255
    37f0:	64 91       	lpm	r22, Z
    37f2:	66 23       	and	r22, r22
    37f4:	59 f0       	breq	.+22     	; 0x380c <_ZN5Print5printEPK19__FlashStringHelper+0x36>
    37f6:	d7 01       	movw	r26, r14
    37f8:	ed 91       	ld	r30, X+
    37fa:	fc 91       	ld	r31, X
    37fc:	01 90       	ld	r0, Z+
    37fe:	f0 81       	ld	r31, Z
    3800:	e0 2d       	mov	r30, r0
    3802:	c7 01       	movw	r24, r14
    3804:	09 95       	icall
    3806:	c8 0f       	add	r28, r24
    3808:	d9 1f       	adc	r29, r25
    380a:	ef cf       	rjmp	.-34     	; 0x37ea <_ZN5Print5printEPK19__FlashStringHelper+0x14>
    380c:	ce 01       	movw	r24, r28
    380e:	df 91       	pop	r29
    3810:	cf 91       	pop	r28
    3812:	1f 91       	pop	r17
    3814:	0f 91       	pop	r16
    3816:	ff 90       	pop	r15
    3818:	ef 90       	pop	r14
    381a:	08 95       	ret

0000381c <_ZN5Print5printEc>:
    381c:	dc 01       	movw	r26, r24
    381e:	ed 91       	ld	r30, X+
    3820:	fc 91       	ld	r31, X
    3822:	01 90       	ld	r0, Z+
    3824:	f0 81       	ld	r31, Z
    3826:	e0 2d       	mov	r30, r0
    3828:	09 95       	icall
    382a:	08 95       	ret

0000382c <_ZN5Print7printlnEv>:
    382c:	ef 92       	push	r14
    382e:	ff 92       	push	r15
    3830:	0f 93       	push	r16
    3832:	1f 93       	push	r17
    3834:	8c 01       	movw	r16, r24
    3836:	dc 01       	movw	r26, r24
    3838:	ed 91       	ld	r30, X+
    383a:	fc 91       	ld	r31, X
    383c:	01 90       	ld	r0, Z+
    383e:	f0 81       	ld	r31, Z
    3840:	e0 2d       	mov	r30, r0
    3842:	6d e0       	ldi	r22, 0x0D	; 13
    3844:	09 95       	icall
    3846:	7c 01       	movw	r14, r24
    3848:	d8 01       	movw	r26, r16
    384a:	ed 91       	ld	r30, X+
    384c:	fc 91       	ld	r31, X
    384e:	01 90       	ld	r0, Z+
    3850:	f0 81       	ld	r31, Z
    3852:	e0 2d       	mov	r30, r0
    3854:	c8 01       	movw	r24, r16
    3856:	6a e0       	ldi	r22, 0x0A	; 10
    3858:	09 95       	icall
    385a:	9c 01       	movw	r18, r24
    385c:	2e 0d       	add	r18, r14
    385e:	3f 1d       	adc	r19, r15
    3860:	c9 01       	movw	r24, r18
    3862:	1f 91       	pop	r17
    3864:	0f 91       	pop	r16
    3866:	ff 90       	pop	r15
    3868:	ef 90       	pop	r14
    386a:	08 95       	ret

0000386c <_ZN5Print7printlnEPK19__FlashStringHelper>:
    386c:	ef 92       	push	r14
    386e:	ff 92       	push	r15
    3870:	0f 93       	push	r16
    3872:	1f 93       	push	r17
    3874:	7c 01       	movw	r14, r24
    3876:	0e 94 eb 1b 	call	0x37d6	; 0x37d6 <_ZN5Print5printEPK19__FlashStringHelper>
    387a:	8c 01       	movw	r16, r24
    387c:	c7 01       	movw	r24, r14
    387e:	0e 94 16 1c 	call	0x382c	; 0x382c <_ZN5Print7printlnEv>
    3882:	9c 01       	movw	r18, r24
    3884:	20 0f       	add	r18, r16
    3886:	31 1f       	adc	r19, r17
    3888:	c9 01       	movw	r24, r18
    388a:	1f 91       	pop	r17
    388c:	0f 91       	pop	r16
    388e:	ff 90       	pop	r15
    3890:	ef 90       	pop	r14
    3892:	08 95       	ret

00003894 <_ZN5Print5writeEPKc>:
    3894:	cf 93       	push	r28
    3896:	df 93       	push	r29
    3898:	db 01       	movw	r26, r22
    389a:	0d 90       	ld	r0, X+
    389c:	00 20       	and	r0, r0
    389e:	e9 f7       	brne	.-6      	; 0x389a <_ZN5Print5writeEPKc+0x6>
    38a0:	11 97       	sbiw	r26, 0x01	; 1
    38a2:	a6 1b       	sub	r26, r22
    38a4:	b7 0b       	sbc	r27, r23
    38a6:	ec 01       	movw	r28, r24
    38a8:	e8 81       	ld	r30, Y
    38aa:	f9 81       	ldd	r31, Y+1	; 0x01
    38ac:	02 80       	ldd	r0, Z+2	; 0x02
    38ae:	f3 81       	ldd	r31, Z+3	; 0x03
    38b0:	e0 2d       	mov	r30, r0
    38b2:	ad 01       	movw	r20, r26
    38b4:	09 95       	icall
    38b6:	df 91       	pop	r29
    38b8:	cf 91       	pop	r28
    38ba:	08 95       	ret

000038bc <_ZN5Print11printNumberEmh>:
    38bc:	4f 92       	push	r4
    38be:	5f 92       	push	r5
    38c0:	7f 92       	push	r7
    38c2:	8f 92       	push	r8
    38c4:	9f 92       	push	r9
    38c6:	af 92       	push	r10
    38c8:	bf 92       	push	r11
    38ca:	cf 92       	push	r12
    38cc:	df 92       	push	r13
    38ce:	ef 92       	push	r14
    38d0:	ff 92       	push	r15
    38d2:	0f 93       	push	r16
    38d4:	1f 93       	push	r17
    38d6:	df 93       	push	r29
    38d8:	cf 93       	push	r28
    38da:	cd b7       	in	r28, 0x3d	; 61
    38dc:	de b7       	in	r29, 0x3e	; 62
    38de:	a1 97       	sbiw	r28, 0x21	; 33
    38e0:	0f b6       	in	r0, 0x3f	; 63
    38e2:	f8 94       	cli
    38e4:	de bf       	out	0x3e, r29	; 62
    38e6:	0f be       	out	0x3f, r0	; 63
    38e8:	cd bf       	out	0x3d, r28	; 61
    38ea:	2c 01       	movw	r4, r24
    38ec:	74 2e       	mov	r7, r20
    38ee:	cb 01       	movw	r24, r22
    38f0:	22 30       	cpi	r18, 0x02	; 2
    38f2:	08 f4       	brcc	.+2      	; 0x38f6 <_ZN5Print11printNumberEmh+0x3a>
    38f4:	2a e0       	ldi	r18, 0x0A	; 10
    38f6:	19 a2       	std	Y+33, r1	; 0x21
    38f8:	31 e2       	ldi	r19, 0x21	; 33
    38fa:	c3 2e       	mov	r12, r19
    38fc:	d1 2c       	mov	r13, r1
    38fe:	cc 0e       	add	r12, r28
    3900:	dd 1e       	adc	r13, r29
    3902:	82 2e       	mov	r8, r18
    3904:	99 24       	eor	r9, r9
    3906:	aa 24       	eor	r10, r10
    3908:	bb 24       	eor	r11, r11
    390a:	67 2d       	mov	r22, r7
    390c:	75 2f       	mov	r23, r21
    390e:	a5 01       	movw	r20, r10
    3910:	94 01       	movw	r18, r8
    3912:	0e 94 33 1e 	call	0x3c66	; 0x3c66 <__udivmodsi4>
    3916:	79 01       	movw	r14, r18
    3918:	8a 01       	movw	r16, r20
    391a:	c8 01       	movw	r24, r16
    391c:	b7 01       	movw	r22, r14
    391e:	a5 01       	movw	r20, r10
    3920:	94 01       	movw	r18, r8
    3922:	0e 94 fb 1d 	call	0x3bf6	; 0x3bf6 <__mulsi3>
    3926:	47 2d       	mov	r20, r7
    3928:	46 1b       	sub	r20, r22
    392a:	08 94       	sec
    392c:	c1 08       	sbc	r12, r1
    392e:	d1 08       	sbc	r13, r1
    3930:	4a 30       	cpi	r20, 0x0A	; 10
    3932:	14 f4       	brge	.+4      	; 0x3938 <_ZN5Print11printNumberEmh+0x7c>
    3934:	40 5d       	subi	r20, 0xD0	; 208
    3936:	01 c0       	rjmp	.+2      	; 0x393a <_ZN5Print11printNumberEmh+0x7e>
    3938:	49 5c       	subi	r20, 0xC9	; 201
    393a:	f6 01       	movw	r30, r12
    393c:	40 83       	st	Z, r20
    393e:	e1 14       	cp	r14, r1
    3940:	f1 04       	cpc	r15, r1
    3942:	01 05       	cpc	r16, r1
    3944:	11 05       	cpc	r17, r1
    3946:	21 f0       	breq	.+8      	; 0x3950 <_ZN5Print11printNumberEmh+0x94>
    3948:	7e 2c       	mov	r7, r14
    394a:	5f 2d       	mov	r21, r15
    394c:	c8 01       	movw	r24, r16
    394e:	dd cf       	rjmp	.-70     	; 0x390a <_ZN5Print11printNumberEmh+0x4e>
    3950:	c2 01       	movw	r24, r4
    3952:	b6 01       	movw	r22, r12
    3954:	0e 94 4a 1c 	call	0x3894	; 0x3894 <_ZN5Print5writeEPKc>
    3958:	a1 96       	adiw	r28, 0x21	; 33
    395a:	0f b6       	in	r0, 0x3f	; 63
    395c:	f8 94       	cli
    395e:	de bf       	out	0x3e, r29	; 62
    3960:	0f be       	out	0x3f, r0	; 63
    3962:	cd bf       	out	0x3d, r28	; 61
    3964:	cf 91       	pop	r28
    3966:	df 91       	pop	r29
    3968:	1f 91       	pop	r17
    396a:	0f 91       	pop	r16
    396c:	ff 90       	pop	r15
    396e:	ef 90       	pop	r14
    3970:	df 90       	pop	r13
    3972:	cf 90       	pop	r12
    3974:	bf 90       	pop	r11
    3976:	af 90       	pop	r10
    3978:	9f 90       	pop	r9
    397a:	8f 90       	pop	r8
    397c:	7f 90       	pop	r7
    397e:	5f 90       	pop	r5
    3980:	4f 90       	pop	r4
    3982:	08 95       	ret

00003984 <_ZN5Print5printEmi>:
    3984:	dc 01       	movw	r26, r24
    3986:	21 15       	cp	r18, r1
    3988:	31 05       	cpc	r19, r1
    398a:	41 f4       	brne	.+16     	; 0x399c <_ZN5Print5printEmi+0x18>
    398c:	ed 91       	ld	r30, X+
    398e:	fc 91       	ld	r31, X
    3990:	01 90       	ld	r0, Z+
    3992:	f0 81       	ld	r31, Z
    3994:	e0 2d       	mov	r30, r0
    3996:	64 2f       	mov	r22, r20
    3998:	09 95       	icall
    399a:	08 95       	ret
    399c:	0e 94 5e 1c 	call	0x38bc	; 0x38bc <_ZN5Print11printNumberEmh>
    39a0:	08 95       	ret

000039a2 <_ZN5Print5printEji>:
    39a2:	ef 92       	push	r14
    39a4:	ff 92       	push	r15
    39a6:	0f 93       	push	r16
    39a8:	1f 93       	push	r17
    39aa:	9a 01       	movw	r18, r20
    39ac:	7b 01       	movw	r14, r22
    39ae:	00 e0       	ldi	r16, 0x00	; 0
    39b0:	10 e0       	ldi	r17, 0x00	; 0
    39b2:	b8 01       	movw	r22, r16
    39b4:	a7 01       	movw	r20, r14
    39b6:	0e 94 c2 1c 	call	0x3984	; 0x3984 <_ZN5Print5printEmi>
    39ba:	1f 91       	pop	r17
    39bc:	0f 91       	pop	r16
    39be:	ff 90       	pop	r15
    39c0:	ef 90       	pop	r14
    39c2:	08 95       	ret

000039c4 <_ZN5Print5printEhi>:
    39c4:	ef 92       	push	r14
    39c6:	ff 92       	push	r15
    39c8:	0f 93       	push	r16
    39ca:	1f 93       	push	r17
    39cc:	9a 01       	movw	r18, r20
    39ce:	e6 2e       	mov	r14, r22
    39d0:	ff 24       	eor	r15, r15
    39d2:	00 e0       	ldi	r16, 0x00	; 0
    39d4:	10 e0       	ldi	r17, 0x00	; 0
    39d6:	b8 01       	movw	r22, r16
    39d8:	a7 01       	movw	r20, r14
    39da:	0e 94 c2 1c 	call	0x3984	; 0x3984 <_ZN5Print5printEmi>
    39de:	1f 91       	pop	r17
    39e0:	0f 91       	pop	r16
    39e2:	ff 90       	pop	r15
    39e4:	ef 90       	pop	r14
    39e6:	08 95       	ret

000039e8 <_ZN5Print5printEli>:
    39e8:	cf 92       	push	r12
    39ea:	df 92       	push	r13
    39ec:	ef 92       	push	r14
    39ee:	ff 92       	push	r15
    39f0:	0f 93       	push	r16
    39f2:	1f 93       	push	r17
    39f4:	cf 93       	push	r28
    39f6:	df 93       	push	r29
    39f8:	ec 01       	movw	r28, r24
    39fa:	6a 01       	movw	r12, r20
    39fc:	7b 01       	movw	r14, r22
    39fe:	21 15       	cp	r18, r1
    3a00:	31 05       	cpc	r19, r1
    3a02:	41 f4       	brne	.+16     	; 0x3a14 <_ZN5Print5printEli+0x2c>
    3a04:	e8 81       	ld	r30, Y
    3a06:	f9 81       	ldd	r31, Y+1	; 0x01
    3a08:	01 90       	ld	r0, Z+
    3a0a:	f0 81       	ld	r31, Z
    3a0c:	e0 2d       	mov	r30, r0
    3a0e:	64 2f       	mov	r22, r20
    3a10:	09 95       	icall
    3a12:	1f c0       	rjmp	.+62     	; 0x3a52 <_ZN5Print5printEli+0x6a>
    3a14:	2a 30       	cpi	r18, 0x0A	; 10
    3a16:	31 05       	cpc	r19, r1
    3a18:	d1 f4       	brne	.+52     	; 0x3a4e <_ZN5Print5printEli+0x66>
    3a1a:	77 ff       	sbrs	r23, 7
    3a1c:	17 c0       	rjmp	.+46     	; 0x3a4c <_ZN5Print5printEli+0x64>
    3a1e:	e8 81       	ld	r30, Y
    3a20:	f9 81       	ldd	r31, Y+1	; 0x01
    3a22:	01 90       	ld	r0, Z+
    3a24:	f0 81       	ld	r31, Z
    3a26:	e0 2d       	mov	r30, r0
    3a28:	6d e2       	ldi	r22, 0x2D	; 45
    3a2a:	09 95       	icall
    3a2c:	8c 01       	movw	r16, r24
    3a2e:	44 27       	eor	r20, r20
    3a30:	55 27       	eor	r21, r21
    3a32:	ba 01       	movw	r22, r20
    3a34:	4c 19       	sub	r20, r12
    3a36:	5d 09       	sbc	r21, r13
    3a38:	6e 09       	sbc	r22, r14
    3a3a:	7f 09       	sbc	r23, r15
    3a3c:	ce 01       	movw	r24, r28
    3a3e:	2a e0       	ldi	r18, 0x0A	; 10
    3a40:	0e 94 5e 1c 	call	0x38bc	; 0x38bc <_ZN5Print11printNumberEmh>
    3a44:	98 01       	movw	r18, r16
    3a46:	28 0f       	add	r18, r24
    3a48:	39 1f       	adc	r19, r25
    3a4a:	04 c0       	rjmp	.+8      	; 0x3a54 <_ZN5Print5printEli+0x6c>
    3a4c:	2a e0       	ldi	r18, 0x0A	; 10
    3a4e:	0e 94 5e 1c 	call	0x38bc	; 0x38bc <_ZN5Print11printNumberEmh>
    3a52:	9c 01       	movw	r18, r24
    3a54:	c9 01       	movw	r24, r18
    3a56:	df 91       	pop	r29
    3a58:	cf 91       	pop	r28
    3a5a:	1f 91       	pop	r17
    3a5c:	0f 91       	pop	r16
    3a5e:	ff 90       	pop	r15
    3a60:	ef 90       	pop	r14
    3a62:	df 90       	pop	r13
    3a64:	cf 90       	pop	r12
    3a66:	08 95       	ret

00003a68 <_ZN5Print5printEPKc>:
    3a68:	0e 94 4a 1c 	call	0x3894	; 0x3894 <_ZN5Print5writeEPKc>
    3a6c:	08 95       	ret

00003a6e <_ZN5Print10printFloatEdh>:
    3a6e:	7f 92       	push	r7
    3a70:	8f 92       	push	r8
    3a72:	9f 92       	push	r9
    3a74:	af 92       	push	r10
    3a76:	bf 92       	push	r11
    3a78:	cf 92       	push	r12
    3a7a:	df 92       	push	r13
    3a7c:	ef 92       	push	r14
    3a7e:	ff 92       	push	r15
    3a80:	0f 93       	push	r16
    3a82:	1f 93       	push	r17
    3a84:	cf 93       	push	r28
    3a86:	df 93       	push	r29
    3a88:	4c 01       	movw	r8, r24
    3a8a:	7a 01       	movw	r14, r20
    3a8c:	8b 01       	movw	r16, r22
    3a8e:	72 2e       	mov	r7, r18
    3a90:	cb 01       	movw	r24, r22
    3a92:	ba 01       	movw	r22, r20
    3a94:	20 e0       	ldi	r18, 0x00	; 0
    3a96:	30 e0       	ldi	r19, 0x00	; 0
    3a98:	40 e0       	ldi	r20, 0x00	; 0
    3a9a:	50 e0       	ldi	r21, 0x00	; 0
    3a9c:	0e 94 a1 18 	call	0x3142	; 0x3142 <__cmpsf2>
    3aa0:	87 fd       	sbrc	r24, 7
    3aa2:	03 c0       	rjmp	.+6      	; 0x3aaa <_ZN5Print10printFloatEdh+0x3c>
    3aa4:	c0 e0       	ldi	r28, 0x00	; 0
    3aa6:	d0 e0       	ldi	r29, 0x00	; 0
    3aa8:	0e c0       	rjmp	.+28     	; 0x3ac6 <_ZN5Print10printFloatEdh+0x58>
    3aaa:	d4 01       	movw	r26, r8
    3aac:	ed 91       	ld	r30, X+
    3aae:	fc 91       	ld	r31, X
    3ab0:	01 90       	ld	r0, Z+
    3ab2:	f0 81       	ld	r31, Z
    3ab4:	e0 2d       	mov	r30, r0
    3ab6:	c4 01       	movw	r24, r8
    3ab8:	6d e2       	ldi	r22, 0x2D	; 45
    3aba:	09 95       	icall
    3abc:	ec 01       	movw	r28, r24
    3abe:	17 fb       	bst	r17, 7
    3ac0:	10 95       	com	r17
    3ac2:	17 f9       	bld	r17, 7
    3ac4:	10 95       	com	r17
    3ac6:	20 e0       	ldi	r18, 0x00	; 0
    3ac8:	30 e0       	ldi	r19, 0x00	; 0
    3aca:	40 e0       	ldi	r20, 0x00	; 0
    3acc:	5f e3       	ldi	r21, 0x3F	; 63
    3ace:	aa 24       	eor	r10, r10
    3ad0:	0b c0       	rjmp	.+22     	; 0x3ae8 <_ZN5Print10printFloatEdh+0x7a>
    3ad2:	ca 01       	movw	r24, r20
    3ad4:	b9 01       	movw	r22, r18
    3ad6:	20 e0       	ldi	r18, 0x00	; 0
    3ad8:	30 e0       	ldi	r19, 0x00	; 0
    3ada:	40 e2       	ldi	r20, 0x20	; 32
    3adc:	51 e4       	ldi	r21, 0x41	; 65
    3ade:	0e 94 a6 18 	call	0x314c	; 0x314c <__divsf3>
    3ae2:	9b 01       	movw	r18, r22
    3ae4:	ac 01       	movw	r20, r24
    3ae6:	a3 94       	inc	r10
    3ae8:	a7 14       	cp	r10, r7
    3aea:	98 f3       	brcs	.-26     	; 0x3ad2 <_ZN5Print10printFloatEdh+0x64>
    3aec:	c8 01       	movw	r24, r16
    3aee:	b7 01       	movw	r22, r14
    3af0:	0e 94 1e 18 	call	0x303c	; 0x303c <__addsf3>
    3af4:	5b 01       	movw	r10, r22
    3af6:	6c 01       	movw	r12, r24
    3af8:	0e 94 1f 19 	call	0x323e	; 0x323e <__fixunssfsi>
    3afc:	7b 01       	movw	r14, r22
    3afe:	8c 01       	movw	r16, r24
    3b00:	c4 01       	movw	r24, r8
    3b02:	b8 01       	movw	r22, r16
    3b04:	a7 01       	movw	r20, r14
    3b06:	2a e0       	ldi	r18, 0x0A	; 10
    3b08:	30 e0       	ldi	r19, 0x00	; 0
    3b0a:	0e 94 c2 1c 	call	0x3984	; 0x3984 <_ZN5Print5printEmi>
    3b0e:	c8 0f       	add	r28, r24
    3b10:	d9 1f       	adc	r29, r25
    3b12:	77 20       	and	r7, r7
    3b14:	39 f0       	breq	.+14     	; 0x3b24 <_ZN5Print10printFloatEdh+0xb6>
    3b16:	c4 01       	movw	r24, r8
    3b18:	60 e0       	ldi	r22, 0x00	; 0
    3b1a:	71 e0       	ldi	r23, 0x01	; 1
    3b1c:	0e 94 4a 1c 	call	0x3894	; 0x3894 <_ZN5Print5writeEPKc>
    3b20:	c8 0f       	add	r28, r24
    3b22:	d9 1f       	adc	r29, r25
    3b24:	c8 01       	movw	r24, r16
    3b26:	b7 01       	movw	r22, r14
    3b28:	0e 94 4e 19 	call	0x329c	; 0x329c <__floatunsisf>
    3b2c:	9b 01       	movw	r18, r22
    3b2e:	ac 01       	movw	r20, r24
    3b30:	c6 01       	movw	r24, r12
    3b32:	b5 01       	movw	r22, r10
    3b34:	0e 94 1d 18 	call	0x303a	; 0x303a <__subsf3>
    3b38:	24 c0       	rjmp	.+72     	; 0x3b82 <_ZN5Print10printFloatEdh+0x114>
    3b3a:	20 e0       	ldi	r18, 0x00	; 0
    3b3c:	30 e0       	ldi	r19, 0x00	; 0
    3b3e:	40 e2       	ldi	r20, 0x20	; 32
    3b40:	51 e4       	ldi	r21, 0x41	; 65
    3b42:	0e 94 41 1a 	call	0x3482	; 0x3482 <__mulsf3>
    3b46:	7b 01       	movw	r14, r22
    3b48:	8c 01       	movw	r16, r24
    3b4a:	0e 94 18 19 	call	0x3230	; 0x3230 <__fixsfsi>
    3b4e:	5b 01       	movw	r10, r22
    3b50:	6c 01       	movw	r12, r24
    3b52:	cc 24       	eor	r12, r12
    3b54:	b7 fc       	sbrc	r11, 7
    3b56:	c0 94       	com	r12
    3b58:	dc 2c       	mov	r13, r12
    3b5a:	c4 01       	movw	r24, r8
    3b5c:	b6 01       	movw	r22, r12
    3b5e:	a5 01       	movw	r20, r10
    3b60:	2a e0       	ldi	r18, 0x0A	; 10
    3b62:	30 e0       	ldi	r19, 0x00	; 0
    3b64:	0e 94 f4 1c 	call	0x39e8	; 0x39e8 <_ZN5Print5printEli>
    3b68:	c8 0f       	add	r28, r24
    3b6a:	d9 1f       	adc	r29, r25
    3b6c:	c6 01       	movw	r24, r12
    3b6e:	b5 01       	movw	r22, r10
    3b70:	0e 94 50 19 	call	0x32a0	; 0x32a0 <__floatsisf>
    3b74:	9b 01       	movw	r18, r22
    3b76:	ac 01       	movw	r20, r24
    3b78:	c8 01       	movw	r24, r16
    3b7a:	b7 01       	movw	r22, r14
    3b7c:	0e 94 1d 18 	call	0x303a	; 0x303a <__subsf3>
    3b80:	7a 94       	dec	r7
    3b82:	77 20       	and	r7, r7
    3b84:	d1 f6       	brne	.-76     	; 0x3b3a <_ZN5Print10printFloatEdh+0xcc>
    3b86:	ce 01       	movw	r24, r28
    3b88:	df 91       	pop	r29
    3b8a:	cf 91       	pop	r28
    3b8c:	1f 91       	pop	r17
    3b8e:	0f 91       	pop	r16
    3b90:	ff 90       	pop	r15
    3b92:	ef 90       	pop	r14
    3b94:	df 90       	pop	r13
    3b96:	cf 90       	pop	r12
    3b98:	bf 90       	pop	r11
    3b9a:	af 90       	pop	r10
    3b9c:	9f 90       	pop	r9
    3b9e:	8f 90       	pop	r8
    3ba0:	7f 90       	pop	r7
    3ba2:	08 95       	ret

00003ba4 <_ZN5Print5printEdi>:
    3ba4:	0e 94 37 1d 	call	0x3a6e	; 0x3a6e <_ZN5Print10printFloatEdh>
    3ba8:	08 95       	ret

00003baa <_ZN5Print7printlnEdi>:
    3baa:	ef 92       	push	r14
    3bac:	ff 92       	push	r15
    3bae:	0f 93       	push	r16
    3bb0:	1f 93       	push	r17
    3bb2:	7c 01       	movw	r14, r24
    3bb4:	0e 94 37 1d 	call	0x3a6e	; 0x3a6e <_ZN5Print10printFloatEdh>
    3bb8:	8c 01       	movw	r16, r24
    3bba:	c7 01       	movw	r24, r14
    3bbc:	0e 94 16 1c 	call	0x382c	; 0x382c <_ZN5Print7printlnEv>
    3bc0:	08 0f       	add	r16, r24
    3bc2:	19 1f       	adc	r17, r25
    3bc4:	c8 01       	movw	r24, r16
    3bc6:	1f 91       	pop	r17
    3bc8:	0f 91       	pop	r16
    3bca:	ff 90       	pop	r15
    3bcc:	ef 90       	pop	r14
    3bce:	08 95       	ret

00003bd0 <_ZN5Print7printlnEPKc>:
    3bd0:	ef 92       	push	r14
    3bd2:	ff 92       	push	r15
    3bd4:	0f 93       	push	r16
    3bd6:	1f 93       	push	r17
    3bd8:	7c 01       	movw	r14, r24
    3bda:	0e 94 4a 1c 	call	0x3894	; 0x3894 <_ZN5Print5writeEPKc>
    3bde:	8c 01       	movw	r16, r24
    3be0:	c7 01       	movw	r24, r14
    3be2:	0e 94 16 1c 	call	0x382c	; 0x382c <_ZN5Print7printlnEv>
    3be6:	08 0f       	add	r16, r24
    3be8:	19 1f       	adc	r17, r25
    3bea:	c8 01       	movw	r24, r16
    3bec:	1f 91       	pop	r17
    3bee:	0f 91       	pop	r16
    3bf0:	ff 90       	pop	r15
    3bf2:	ef 90       	pop	r14
    3bf4:	08 95       	ret

00003bf6 <__mulsi3>:
    3bf6:	db 01       	movw	r26, r22
    3bf8:	8f 93       	push	r24
    3bfa:	9f 93       	push	r25
    3bfc:	0e 94 64 1e 	call	0x3cc8	; 0x3cc8 <__muluhisi3>
    3c00:	bf 91       	pop	r27
    3c02:	af 91       	pop	r26
    3c04:	a2 9f       	mul	r26, r18
    3c06:	80 0d       	add	r24, r0
    3c08:	91 1d       	adc	r25, r1
    3c0a:	a3 9f       	mul	r26, r19
    3c0c:	90 0d       	add	r25, r0
    3c0e:	b2 9f       	mul	r27, r18
    3c10:	90 0d       	add	r25, r0
    3c12:	11 24       	eor	r1, r1
    3c14:	08 95       	ret

00003c16 <__udivmodhi4>:
    3c16:	aa 1b       	sub	r26, r26
    3c18:	bb 1b       	sub	r27, r27
    3c1a:	51 e1       	ldi	r21, 0x11	; 17
    3c1c:	07 c0       	rjmp	.+14     	; 0x3c2c <__udivmodhi4_ep>

00003c1e <__udivmodhi4_loop>:
    3c1e:	aa 1f       	adc	r26, r26
    3c20:	bb 1f       	adc	r27, r27
    3c22:	a6 17       	cp	r26, r22
    3c24:	b7 07       	cpc	r27, r23
    3c26:	10 f0       	brcs	.+4      	; 0x3c2c <__udivmodhi4_ep>
    3c28:	a6 1b       	sub	r26, r22
    3c2a:	b7 0b       	sbc	r27, r23

00003c2c <__udivmodhi4_ep>:
    3c2c:	88 1f       	adc	r24, r24
    3c2e:	99 1f       	adc	r25, r25
    3c30:	5a 95       	dec	r21
    3c32:	a9 f7       	brne	.-22     	; 0x3c1e <__udivmodhi4_loop>
    3c34:	80 95       	com	r24
    3c36:	90 95       	com	r25
    3c38:	bc 01       	movw	r22, r24
    3c3a:	cd 01       	movw	r24, r26
    3c3c:	08 95       	ret

00003c3e <__divmodhi4>:
    3c3e:	97 fb       	bst	r25, 7
    3c40:	07 2e       	mov	r0, r23
    3c42:	16 f4       	brtc	.+4      	; 0x3c48 <__divmodhi4+0xa>
    3c44:	00 94       	com	r0
    3c46:	07 d0       	rcall	.+14     	; 0x3c56 <__divmodhi4_neg1>
    3c48:	77 fd       	sbrc	r23, 7
    3c4a:	09 d0       	rcall	.+18     	; 0x3c5e <__divmodhi4_neg2>
    3c4c:	0e 94 0b 1e 	call	0x3c16	; 0x3c16 <__udivmodhi4>
    3c50:	07 fc       	sbrc	r0, 7
    3c52:	05 d0       	rcall	.+10     	; 0x3c5e <__divmodhi4_neg2>
    3c54:	3e f4       	brtc	.+14     	; 0x3c64 <__divmodhi4_exit>

00003c56 <__divmodhi4_neg1>:
    3c56:	90 95       	com	r25
    3c58:	81 95       	neg	r24
    3c5a:	9f 4f       	sbci	r25, 0xFF	; 255
    3c5c:	08 95       	ret

00003c5e <__divmodhi4_neg2>:
    3c5e:	70 95       	com	r23
    3c60:	61 95       	neg	r22
    3c62:	7f 4f       	sbci	r23, 0xFF	; 255

00003c64 <__divmodhi4_exit>:
    3c64:	08 95       	ret

00003c66 <__udivmodsi4>:
    3c66:	a1 e2       	ldi	r26, 0x21	; 33
    3c68:	1a 2e       	mov	r1, r26
    3c6a:	aa 1b       	sub	r26, r26
    3c6c:	bb 1b       	sub	r27, r27
    3c6e:	fd 01       	movw	r30, r26
    3c70:	0d c0       	rjmp	.+26     	; 0x3c8c <__udivmodsi4_ep>

00003c72 <__udivmodsi4_loop>:
    3c72:	aa 1f       	adc	r26, r26
    3c74:	bb 1f       	adc	r27, r27
    3c76:	ee 1f       	adc	r30, r30
    3c78:	ff 1f       	adc	r31, r31
    3c7a:	a2 17       	cp	r26, r18
    3c7c:	b3 07       	cpc	r27, r19
    3c7e:	e4 07       	cpc	r30, r20
    3c80:	f5 07       	cpc	r31, r21
    3c82:	20 f0       	brcs	.+8      	; 0x3c8c <__udivmodsi4_ep>
    3c84:	a2 1b       	sub	r26, r18
    3c86:	b3 0b       	sbc	r27, r19
    3c88:	e4 0b       	sbc	r30, r20
    3c8a:	f5 0b       	sbc	r31, r21

00003c8c <__udivmodsi4_ep>:
    3c8c:	66 1f       	adc	r22, r22
    3c8e:	77 1f       	adc	r23, r23
    3c90:	88 1f       	adc	r24, r24
    3c92:	99 1f       	adc	r25, r25
    3c94:	1a 94       	dec	r1
    3c96:	69 f7       	brne	.-38     	; 0x3c72 <__udivmodsi4_loop>
    3c98:	60 95       	com	r22
    3c9a:	70 95       	com	r23
    3c9c:	80 95       	com	r24
    3c9e:	90 95       	com	r25
    3ca0:	9b 01       	movw	r18, r22
    3ca2:	ac 01       	movw	r20, r24
    3ca4:	bd 01       	movw	r22, r26
    3ca6:	cf 01       	movw	r24, r30
    3ca8:	08 95       	ret

00003caa <__umulhisi3>:
    3caa:	a2 9f       	mul	r26, r18
    3cac:	b0 01       	movw	r22, r0
    3cae:	b3 9f       	mul	r27, r19
    3cb0:	c0 01       	movw	r24, r0
    3cb2:	a3 9f       	mul	r26, r19
    3cb4:	70 0d       	add	r23, r0
    3cb6:	81 1d       	adc	r24, r1
    3cb8:	11 24       	eor	r1, r1
    3cba:	91 1d       	adc	r25, r1
    3cbc:	b2 9f       	mul	r27, r18
    3cbe:	70 0d       	add	r23, r0
    3cc0:	81 1d       	adc	r24, r1
    3cc2:	11 24       	eor	r1, r1
    3cc4:	91 1d       	adc	r25, r1
    3cc6:	08 95       	ret

00003cc8 <__muluhisi3>:
    3cc8:	0e 94 55 1e 	call	0x3caa	; 0x3caa <__umulhisi3>
    3ccc:	a5 9f       	mul	r26, r21
    3cce:	90 0d       	add	r25, r0
    3cd0:	b4 9f       	mul	r27, r20
    3cd2:	90 0d       	add	r25, r0
    3cd4:	a4 9f       	mul	r26, r20
    3cd6:	80 0d       	add	r24, r0
    3cd8:	91 1d       	adc	r25, r1
    3cda:	11 24       	eor	r1, r1
    3cdc:	08 95       	ret

00003cde <__tablejump2__>:
    3cde:	ee 0f       	add	r30, r30
    3ce0:	ff 1f       	adc	r31, r31
    3ce2:	05 90       	lpm	r0, Z+
    3ce4:	f4 91       	lpm	r31, Z
    3ce6:	e0 2d       	mov	r30, r0
    3ce8:	09 94       	ijmp

00003cea <malloc>:
    3cea:	0f 93       	push	r16
    3cec:	1f 93       	push	r17
    3cee:	cf 93       	push	r28
    3cf0:	df 93       	push	r29
    3cf2:	82 30       	cpi	r24, 0x02	; 2
    3cf4:	91 05       	cpc	r25, r1
    3cf6:	10 f4       	brcc	.+4      	; 0x3cfc <malloc+0x12>
    3cf8:	82 e0       	ldi	r24, 0x02	; 2
    3cfa:	90 e0       	ldi	r25, 0x00	; 0
    3cfc:	e0 91 fb 06 	lds	r30, 0x06FB	; 0x8006fb <__flp>
    3d00:	f0 91 fc 06 	lds	r31, 0x06FC	; 0x8006fc <__flp+0x1>
    3d04:	20 e0       	ldi	r18, 0x00	; 0
    3d06:	30 e0       	ldi	r19, 0x00	; 0
    3d08:	a0 e0       	ldi	r26, 0x00	; 0
    3d0a:	b0 e0       	ldi	r27, 0x00	; 0
    3d0c:	30 97       	sbiw	r30, 0x00	; 0
    3d0e:	19 f1       	breq	.+70     	; 0x3d56 <malloc+0x6c>
    3d10:	40 81       	ld	r20, Z
    3d12:	51 81       	ldd	r21, Z+1	; 0x01
    3d14:	02 81       	ldd	r16, Z+2	; 0x02
    3d16:	13 81       	ldd	r17, Z+3	; 0x03
    3d18:	48 17       	cp	r20, r24
    3d1a:	59 07       	cpc	r21, r25
    3d1c:	c8 f0       	brcs	.+50     	; 0x3d50 <malloc+0x66>
    3d1e:	84 17       	cp	r24, r20
    3d20:	95 07       	cpc	r25, r21
    3d22:	69 f4       	brne	.+26     	; 0x3d3e <malloc+0x54>
    3d24:	10 97       	sbiw	r26, 0x00	; 0
    3d26:	31 f0       	breq	.+12     	; 0x3d34 <malloc+0x4a>
    3d28:	12 96       	adiw	r26, 0x02	; 2
    3d2a:	0c 93       	st	X, r16
    3d2c:	12 97       	sbiw	r26, 0x02	; 2
    3d2e:	13 96       	adiw	r26, 0x03	; 3
    3d30:	1c 93       	st	X, r17
    3d32:	27 c0       	rjmp	.+78     	; 0x3d82 <malloc+0x98>
    3d34:	00 93 fb 06 	sts	0x06FB, r16	; 0x8006fb <__flp>
    3d38:	10 93 fc 06 	sts	0x06FC, r17	; 0x8006fc <__flp+0x1>
    3d3c:	22 c0       	rjmp	.+68     	; 0x3d82 <malloc+0x98>
    3d3e:	21 15       	cp	r18, r1
    3d40:	31 05       	cpc	r19, r1
    3d42:	19 f0       	breq	.+6      	; 0x3d4a <malloc+0x60>
    3d44:	42 17       	cp	r20, r18
    3d46:	53 07       	cpc	r21, r19
    3d48:	18 f4       	brcc	.+6      	; 0x3d50 <malloc+0x66>
    3d4a:	9a 01       	movw	r18, r20
    3d4c:	bd 01       	movw	r22, r26
    3d4e:	ef 01       	movw	r28, r30
    3d50:	df 01       	movw	r26, r30
    3d52:	f8 01       	movw	r30, r16
    3d54:	db cf       	rjmp	.-74     	; 0x3d0c <malloc+0x22>
    3d56:	21 15       	cp	r18, r1
    3d58:	31 05       	cpc	r19, r1
    3d5a:	f9 f0       	breq	.+62     	; 0x3d9a <malloc+0xb0>
    3d5c:	28 1b       	sub	r18, r24
    3d5e:	39 0b       	sbc	r19, r25
    3d60:	24 30       	cpi	r18, 0x04	; 4
    3d62:	31 05       	cpc	r19, r1
    3d64:	80 f4       	brcc	.+32     	; 0x3d86 <malloc+0x9c>
    3d66:	8a 81       	ldd	r24, Y+2	; 0x02
    3d68:	9b 81       	ldd	r25, Y+3	; 0x03
    3d6a:	61 15       	cp	r22, r1
    3d6c:	71 05       	cpc	r23, r1
    3d6e:	21 f0       	breq	.+8      	; 0x3d78 <malloc+0x8e>
    3d70:	fb 01       	movw	r30, r22
    3d72:	93 83       	std	Z+3, r25	; 0x03
    3d74:	82 83       	std	Z+2, r24	; 0x02
    3d76:	04 c0       	rjmp	.+8      	; 0x3d80 <malloc+0x96>
    3d78:	90 93 fc 06 	sts	0x06FC, r25	; 0x8006fc <__flp+0x1>
    3d7c:	80 93 fb 06 	sts	0x06FB, r24	; 0x8006fb <__flp>
    3d80:	fe 01       	movw	r30, r28
    3d82:	32 96       	adiw	r30, 0x02	; 2
    3d84:	44 c0       	rjmp	.+136    	; 0x3e0e <malloc+0x124>
    3d86:	fe 01       	movw	r30, r28
    3d88:	e2 0f       	add	r30, r18
    3d8a:	f3 1f       	adc	r31, r19
    3d8c:	81 93       	st	Z+, r24
    3d8e:	91 93       	st	Z+, r25
    3d90:	22 50       	subi	r18, 0x02	; 2
    3d92:	31 09       	sbc	r19, r1
    3d94:	39 83       	std	Y+1, r19	; 0x01
    3d96:	28 83       	st	Y, r18
    3d98:	3a c0       	rjmp	.+116    	; 0x3e0e <malloc+0x124>
    3d9a:	20 91 f9 06 	lds	r18, 0x06F9	; 0x8006f9 <__brkval>
    3d9e:	30 91 fa 06 	lds	r19, 0x06FA	; 0x8006fa <__brkval+0x1>
    3da2:	23 2b       	or	r18, r19
    3da4:	41 f4       	brne	.+16     	; 0x3db6 <malloc+0xcc>
    3da6:	20 91 04 01 	lds	r18, 0x0104	; 0x800104 <__malloc_heap_start>
    3daa:	30 91 05 01 	lds	r19, 0x0105	; 0x800105 <__malloc_heap_start+0x1>
    3dae:	30 93 fa 06 	sts	0x06FA, r19	; 0x8006fa <__brkval+0x1>
    3db2:	20 93 f9 06 	sts	0x06F9, r18	; 0x8006f9 <__brkval>
    3db6:	20 91 02 01 	lds	r18, 0x0102	; 0x800102 <__malloc_heap_end>
    3dba:	30 91 03 01 	lds	r19, 0x0103	; 0x800103 <__malloc_heap_end+0x1>
    3dbe:	21 15       	cp	r18, r1
    3dc0:	31 05       	cpc	r19, r1
    3dc2:	41 f4       	brne	.+16     	; 0x3dd4 <malloc+0xea>
    3dc4:	2d b7       	in	r18, 0x3d	; 61
    3dc6:	3e b7       	in	r19, 0x3e	; 62
    3dc8:	40 91 06 01 	lds	r20, 0x0106	; 0x800106 <__malloc_margin>
    3dcc:	50 91 07 01 	lds	r21, 0x0107	; 0x800107 <__malloc_margin+0x1>
    3dd0:	24 1b       	sub	r18, r20
    3dd2:	35 0b       	sbc	r19, r21
    3dd4:	e0 91 f9 06 	lds	r30, 0x06F9	; 0x8006f9 <__brkval>
    3dd8:	f0 91 fa 06 	lds	r31, 0x06FA	; 0x8006fa <__brkval+0x1>
    3ddc:	e2 17       	cp	r30, r18
    3dde:	f3 07       	cpc	r31, r19
    3de0:	a0 f4       	brcc	.+40     	; 0x3e0a <malloc+0x120>
    3de2:	2e 1b       	sub	r18, r30
    3de4:	3f 0b       	sbc	r19, r31
    3de6:	28 17       	cp	r18, r24
    3de8:	39 07       	cpc	r19, r25
    3dea:	78 f0       	brcs	.+30     	; 0x3e0a <malloc+0x120>
    3dec:	ac 01       	movw	r20, r24
    3dee:	4e 5f       	subi	r20, 0xFE	; 254
    3df0:	5f 4f       	sbci	r21, 0xFF	; 255
    3df2:	24 17       	cp	r18, r20
    3df4:	35 07       	cpc	r19, r21
    3df6:	48 f0       	brcs	.+18     	; 0x3e0a <malloc+0x120>
    3df8:	4e 0f       	add	r20, r30
    3dfa:	5f 1f       	adc	r21, r31
    3dfc:	50 93 fa 06 	sts	0x06FA, r21	; 0x8006fa <__brkval+0x1>
    3e00:	40 93 f9 06 	sts	0x06F9, r20	; 0x8006f9 <__brkval>
    3e04:	81 93       	st	Z+, r24
    3e06:	91 93       	st	Z+, r25
    3e08:	02 c0       	rjmp	.+4      	; 0x3e0e <malloc+0x124>
    3e0a:	e0 e0       	ldi	r30, 0x00	; 0
    3e0c:	f0 e0       	ldi	r31, 0x00	; 0
    3e0e:	cf 01       	movw	r24, r30
    3e10:	df 91       	pop	r29
    3e12:	cf 91       	pop	r28
    3e14:	1f 91       	pop	r17
    3e16:	0f 91       	pop	r16
    3e18:	08 95       	ret

00003e1a <free>:
    3e1a:	cf 93       	push	r28
    3e1c:	df 93       	push	r29
    3e1e:	00 97       	sbiw	r24, 0x00	; 0
    3e20:	09 f4       	brne	.+2      	; 0x3e24 <free+0xa>
    3e22:	81 c0       	rjmp	.+258    	; 0x3f26 <free+0x10c>
    3e24:	fc 01       	movw	r30, r24
    3e26:	32 97       	sbiw	r30, 0x02	; 2
    3e28:	13 82       	std	Z+3, r1	; 0x03
    3e2a:	12 82       	std	Z+2, r1	; 0x02
    3e2c:	a0 91 fb 06 	lds	r26, 0x06FB	; 0x8006fb <__flp>
    3e30:	b0 91 fc 06 	lds	r27, 0x06FC	; 0x8006fc <__flp+0x1>
    3e34:	10 97       	sbiw	r26, 0x00	; 0
    3e36:	81 f4       	brne	.+32     	; 0x3e58 <free+0x3e>
    3e38:	20 81       	ld	r18, Z
    3e3a:	31 81       	ldd	r19, Z+1	; 0x01
    3e3c:	82 0f       	add	r24, r18
    3e3e:	93 1f       	adc	r25, r19
    3e40:	20 91 f9 06 	lds	r18, 0x06F9	; 0x8006f9 <__brkval>
    3e44:	30 91 fa 06 	lds	r19, 0x06FA	; 0x8006fa <__brkval+0x1>
    3e48:	28 17       	cp	r18, r24
    3e4a:	39 07       	cpc	r19, r25
    3e4c:	51 f5       	brne	.+84     	; 0x3ea2 <free+0x88>
    3e4e:	f0 93 fa 06 	sts	0x06FA, r31	; 0x8006fa <__brkval+0x1>
    3e52:	e0 93 f9 06 	sts	0x06F9, r30	; 0x8006f9 <__brkval>
    3e56:	67 c0       	rjmp	.+206    	; 0x3f26 <free+0x10c>
    3e58:	ed 01       	movw	r28, r26
    3e5a:	20 e0       	ldi	r18, 0x00	; 0
    3e5c:	30 e0       	ldi	r19, 0x00	; 0
    3e5e:	ce 17       	cp	r28, r30
    3e60:	df 07       	cpc	r29, r31
    3e62:	40 f4       	brcc	.+16     	; 0x3e74 <free+0x5a>
    3e64:	4a 81       	ldd	r20, Y+2	; 0x02
    3e66:	5b 81       	ldd	r21, Y+3	; 0x03
    3e68:	9e 01       	movw	r18, r28
    3e6a:	41 15       	cp	r20, r1
    3e6c:	51 05       	cpc	r21, r1
    3e6e:	f1 f0       	breq	.+60     	; 0x3eac <free+0x92>
    3e70:	ea 01       	movw	r28, r20
    3e72:	f5 cf       	rjmp	.-22     	; 0x3e5e <free+0x44>
    3e74:	d3 83       	std	Z+3, r29	; 0x03
    3e76:	c2 83       	std	Z+2, r28	; 0x02
    3e78:	40 81       	ld	r20, Z
    3e7a:	51 81       	ldd	r21, Z+1	; 0x01
    3e7c:	84 0f       	add	r24, r20
    3e7e:	95 1f       	adc	r25, r21
    3e80:	c8 17       	cp	r28, r24
    3e82:	d9 07       	cpc	r29, r25
    3e84:	59 f4       	brne	.+22     	; 0x3e9c <free+0x82>
    3e86:	88 81       	ld	r24, Y
    3e88:	99 81       	ldd	r25, Y+1	; 0x01
    3e8a:	84 0f       	add	r24, r20
    3e8c:	95 1f       	adc	r25, r21
    3e8e:	02 96       	adiw	r24, 0x02	; 2
    3e90:	91 83       	std	Z+1, r25	; 0x01
    3e92:	80 83       	st	Z, r24
    3e94:	8a 81       	ldd	r24, Y+2	; 0x02
    3e96:	9b 81       	ldd	r25, Y+3	; 0x03
    3e98:	93 83       	std	Z+3, r25	; 0x03
    3e9a:	82 83       	std	Z+2, r24	; 0x02
    3e9c:	21 15       	cp	r18, r1
    3e9e:	31 05       	cpc	r19, r1
    3ea0:	29 f4       	brne	.+10     	; 0x3eac <free+0x92>
    3ea2:	f0 93 fc 06 	sts	0x06FC, r31	; 0x8006fc <__flp+0x1>
    3ea6:	e0 93 fb 06 	sts	0x06FB, r30	; 0x8006fb <__flp>
    3eaa:	3d c0       	rjmp	.+122    	; 0x3f26 <free+0x10c>
    3eac:	e9 01       	movw	r28, r18
    3eae:	fb 83       	std	Y+3, r31	; 0x03
    3eb0:	ea 83       	std	Y+2, r30	; 0x02
    3eb2:	49 91       	ld	r20, Y+
    3eb4:	59 91       	ld	r21, Y+
    3eb6:	c4 0f       	add	r28, r20
    3eb8:	d5 1f       	adc	r29, r21
    3eba:	ec 17       	cp	r30, r28
    3ebc:	fd 07       	cpc	r31, r29
    3ebe:	61 f4       	brne	.+24     	; 0x3ed8 <free+0xbe>
    3ec0:	80 81       	ld	r24, Z
    3ec2:	91 81       	ldd	r25, Z+1	; 0x01
    3ec4:	84 0f       	add	r24, r20
    3ec6:	95 1f       	adc	r25, r21
    3ec8:	02 96       	adiw	r24, 0x02	; 2
    3eca:	e9 01       	movw	r28, r18
    3ecc:	99 83       	std	Y+1, r25	; 0x01
    3ece:	88 83       	st	Y, r24
    3ed0:	82 81       	ldd	r24, Z+2	; 0x02
    3ed2:	93 81       	ldd	r25, Z+3	; 0x03
    3ed4:	9b 83       	std	Y+3, r25	; 0x03
    3ed6:	8a 83       	std	Y+2, r24	; 0x02
    3ed8:	e0 e0       	ldi	r30, 0x00	; 0
    3eda:	f0 e0       	ldi	r31, 0x00	; 0
    3edc:	12 96       	adiw	r26, 0x02	; 2
    3ede:	8d 91       	ld	r24, X+
    3ee0:	9c 91       	ld	r25, X
    3ee2:	13 97       	sbiw	r26, 0x03	; 3
    3ee4:	00 97       	sbiw	r24, 0x00	; 0
    3ee6:	19 f0       	breq	.+6      	; 0x3eee <free+0xd4>
    3ee8:	fd 01       	movw	r30, r26
    3eea:	dc 01       	movw	r26, r24
    3eec:	f7 cf       	rjmp	.-18     	; 0x3edc <free+0xc2>
    3eee:	8d 91       	ld	r24, X+
    3ef0:	9c 91       	ld	r25, X
    3ef2:	11 97       	sbiw	r26, 0x01	; 1
    3ef4:	9d 01       	movw	r18, r26
    3ef6:	2e 5f       	subi	r18, 0xFE	; 254
    3ef8:	3f 4f       	sbci	r19, 0xFF	; 255
    3efa:	82 0f       	add	r24, r18
    3efc:	93 1f       	adc	r25, r19
    3efe:	20 91 f9 06 	lds	r18, 0x06F9	; 0x8006f9 <__brkval>
    3f02:	30 91 fa 06 	lds	r19, 0x06FA	; 0x8006fa <__brkval+0x1>
    3f06:	28 17       	cp	r18, r24
    3f08:	39 07       	cpc	r19, r25
    3f0a:	69 f4       	brne	.+26     	; 0x3f26 <free+0x10c>
    3f0c:	30 97       	sbiw	r30, 0x00	; 0
    3f0e:	29 f4       	brne	.+10     	; 0x3f1a <free+0x100>
    3f10:	10 92 fc 06 	sts	0x06FC, r1	; 0x8006fc <__flp+0x1>
    3f14:	10 92 fb 06 	sts	0x06FB, r1	; 0x8006fb <__flp>
    3f18:	02 c0       	rjmp	.+4      	; 0x3f1e <free+0x104>
    3f1a:	13 82       	std	Z+3, r1	; 0x03
    3f1c:	12 82       	std	Z+2, r1	; 0x02
    3f1e:	b0 93 fa 06 	sts	0x06FA, r27	; 0x8006fa <__brkval+0x1>
    3f22:	a0 93 f9 06 	sts	0x06F9, r26	; 0x8006f9 <__brkval>
    3f26:	df 91       	pop	r29
    3f28:	cf 91       	pop	r28
    3f2a:	08 95       	ret

00003f2c <atoi>:
    3f2c:	fc 01       	movw	r30, r24
    3f2e:	88 27       	eor	r24, r24
    3f30:	99 27       	eor	r25, r25
    3f32:	e8 94       	clt
    3f34:	21 91       	ld	r18, Z+
    3f36:	20 32       	cpi	r18, 0x20	; 32
    3f38:	e9 f3       	breq	.-6      	; 0x3f34 <atoi+0x8>
    3f3a:	29 30       	cpi	r18, 0x09	; 9
    3f3c:	10 f0       	brcs	.+4      	; 0x3f42 <atoi+0x16>
    3f3e:	2e 30       	cpi	r18, 0x0E	; 14
    3f40:	c8 f3       	brcs	.-14     	; 0x3f34 <atoi+0x8>
    3f42:	2b 32       	cpi	r18, 0x2B	; 43
    3f44:	41 f0       	breq	.+16     	; 0x3f56 <atoi+0x2a>
    3f46:	2d 32       	cpi	r18, 0x2D	; 45
    3f48:	39 f4       	brne	.+14     	; 0x3f58 <atoi+0x2c>
    3f4a:	68 94       	set
    3f4c:	04 c0       	rjmp	.+8      	; 0x3f56 <atoi+0x2a>
    3f4e:	0e 94 e4 1f 	call	0x3fc8	; 0x3fc8 <__mulhi_const_10>
    3f52:	82 0f       	add	r24, r18
    3f54:	91 1d       	adc	r25, r1
    3f56:	21 91       	ld	r18, Z+
    3f58:	20 53       	subi	r18, 0x30	; 48
    3f5a:	2a 30       	cpi	r18, 0x0A	; 10
    3f5c:	c0 f3       	brcs	.-16     	; 0x3f4e <atoi+0x22>
    3f5e:	1e f4       	brtc	.+6      	; 0x3f66 <atoi+0x3a>
    3f60:	90 95       	com	r25
    3f62:	81 95       	neg	r24
    3f64:	9f 4f       	sbci	r25, 0xFF	; 255
    3f66:	08 95       	ret

00003f68 <strcmp_P>:
    3f68:	fb 01       	movw	r30, r22
    3f6a:	dc 01       	movw	r26, r24
    3f6c:	8d 91       	ld	r24, X+
    3f6e:	05 90       	lpm	r0, Z+
    3f70:	80 19       	sub	r24, r0
    3f72:	01 10       	cpse	r0, r1
    3f74:	d9 f3       	breq	.-10     	; 0x3f6c <strcmp_P+0x4>
    3f76:	99 0b       	sbc	r25, r25
    3f78:	08 95       	ret

00003f7a <strncmp_P>:
    3f7a:	fb 01       	movw	r30, r22
    3f7c:	dc 01       	movw	r26, r24
    3f7e:	41 50       	subi	r20, 0x01	; 1
    3f80:	50 40       	sbci	r21, 0x00	; 0
    3f82:	30 f0       	brcs	.+12     	; 0x3f90 <strncmp_P+0x16>
    3f84:	8d 91       	ld	r24, X+
    3f86:	05 90       	lpm	r0, Z+
    3f88:	80 19       	sub	r24, r0
    3f8a:	19 f4       	brne	.+6      	; 0x3f92 <strncmp_P+0x18>
    3f8c:	00 20       	and	r0, r0
    3f8e:	b9 f7       	brne	.-18     	; 0x3f7e <strncmp_P+0x4>
    3f90:	88 1b       	sub	r24, r24
    3f92:	99 0b       	sbc	r25, r25
    3f94:	08 95       	ret

00003f96 <strlwr>:
    3f96:	dc 01       	movw	r26, r24
    3f98:	6c 91       	ld	r22, X
    3f9a:	61 54       	subi	r22, 0x41	; 65
    3f9c:	6a 31       	cpi	r22, 0x1A	; 26
    3f9e:	08 f0       	brcs	.+2      	; 0x3fa2 <strlwr+0xc>
    3fa0:	60 52       	subi	r22, 0x20	; 32
    3fa2:	6f 59       	subi	r22, 0x9F	; 159
    3fa4:	6d 93       	st	X+, r22
    3fa6:	c1 f7       	brne	.-16     	; 0x3f98 <strlwr+0x2>
    3fa8:	08 95       	ret

00003faa <strncpy>:
    3faa:	fb 01       	movw	r30, r22
    3fac:	dc 01       	movw	r26, r24
    3fae:	41 50       	subi	r20, 0x01	; 1
    3fb0:	50 40       	sbci	r21, 0x00	; 0
    3fb2:	48 f0       	brcs	.+18     	; 0x3fc6 <strncpy+0x1c>
    3fb4:	01 90       	ld	r0, Z+
    3fb6:	0d 92       	st	X+, r0
    3fb8:	00 20       	and	r0, r0
    3fba:	c9 f7       	brne	.-14     	; 0x3fae <strncpy+0x4>
    3fbc:	01 c0       	rjmp	.+2      	; 0x3fc0 <strncpy+0x16>
    3fbe:	1d 92       	st	X+, r1
    3fc0:	41 50       	subi	r20, 0x01	; 1
    3fc2:	50 40       	sbci	r21, 0x00	; 0
    3fc4:	e0 f7       	brcc	.-8      	; 0x3fbe <strncpy+0x14>
    3fc6:	08 95       	ret

00003fc8 <__mulhi_const_10>:
    3fc8:	7a e0       	ldi	r23, 0x0A	; 10
    3fca:	97 9f       	mul	r25, r23
    3fcc:	90 2d       	mov	r25, r0
    3fce:	87 9f       	mul	r24, r23
    3fd0:	80 2d       	mov	r24, r0
    3fd2:	91 0d       	add	r25, r1
    3fd4:	11 24       	eor	r1, r1
    3fd6:	08 95       	ret

00003fd8 <__do_global_dtors>:
    3fd8:	14 e0       	ldi	r17, 0x04	; 4
    3fda:	c2 e1       	ldi	r28, 0x12	; 18
    3fdc:	d4 e0       	ldi	r29, 0x04	; 4
    3fde:	04 c0       	rjmp	.+8      	; 0x3fe8 <__do_global_dtors+0x10>
    3fe0:	fe 01       	movw	r30, r28
    3fe2:	0e 94 6f 1e 	call	0x3cde	; 0x3cde <__tablejump2__>
    3fe6:	21 96       	adiw	r28, 0x01	; 1
    3fe8:	c3 31       	cpi	r28, 0x13	; 19
    3fea:	d1 07       	cpc	r29, r17
    3fec:	c9 f7       	brne	.-14     	; 0x3fe0 <__do_global_dtors+0x8>
    3fee:	f8 94       	cli

00003ff0 <__stop_program>:
    3ff0:	ff cf       	rjmp	.-2      	; 0x3ff0 <__stop_program>
